ARM GAS  /tmp/ccfsJD7S.s 			page 1


   1              		.cpu cortex-m3
   2              		.eabi_attribute 20, 1
   3              		.eabi_attribute 21, 1
   4              		.eabi_attribute 23, 3
   5              		.eabi_attribute 24, 1
   6              		.eabi_attribute 25, 1
   7              		.eabi_attribute 26, 1
   8              		.eabi_attribute 30, 1
   9              		.eabi_attribute 34, 1
  10              		.eabi_attribute 18, 4
  11              		.file	"comm_interface.c"
  12              		.text
  13              	.Ltext0:
  14              		.cfi_sections	.debug_frame
  15              		.section	.text.initComms,"ax",%progbits
  16              		.align	1
  17              		.global	initComms
  18              		.arch armv7-m
  19              		.syntax unified
  20              		.thumb
  21              		.thumb_func
  22              		.fpu softvfp
  24              	initComms:
  25              	.LVL0:
  26              	.LFB65:
  27              		.file 1 "Core/Src/comm_interface.c"
   1:Core/Src/comm_interface.c **** #include "comm_interface.h"
   2:Core/Src/comm_interface.c **** 
   3:Core/Src/comm_interface.c **** 
   4:Core/Src/comm_interface.c **** uint8_t initComms(struct comm_data *comm_data_h){
  28              		.loc 1 4 49 view -0
  29              		.cfi_startproc
  30              		@ args = 0, pretend = 0, frame = 0
  31              		@ frame_needed = 0, uses_anonymous_args = 0
  32              		.loc 1 4 49 is_stmt 0 view .LVU1
  33 0000 38B5     		push	{r3, r4, r5, lr}
  34              		.cfi_def_cfa_offset 16
  35              		.cfi_offset 3, -16
  36              		.cfi_offset 4, -12
  37              		.cfi_offset 5, -8
  38              		.cfi_offset 14, -4
  39 0002 0446     		mov	r4, r0
   5:Core/Src/comm_interface.c ****   comm_data_h->flasher_handle = &huart1;
  40              		.loc 1 5 3 is_stmt 1 view .LVU2
  41              		.loc 1 5 31 is_stmt 0 view .LVU3
  42 0004 0F4B     		ldr	r3, .L3
  43 0006 4360     		str	r3, [r0, #4]
   6:Core/Src/comm_interface.c ****   comm_data_h->plotter_handle = &huart3;
  44              		.loc 1 6 3 is_stmt 1 view .LVU4
  45              		.loc 1 6 31 is_stmt 0 view .LVU5
  46 0008 0F4B     		ldr	r3, .L3+4
  47 000a 0360     		str	r3, [r0]
   7:Core/Src/comm_interface.c ****   memset(&(comm_data_h->flasher_rx),'\0',RX_BUFF_SIZE);
  48              		.loc 1 7 3 is_stmt 1 view .LVU6
  49 000c FF25     		movs	r5, #255
  50 000e 2A46     		mov	r2, r5
  51 0010 0021     		movs	r1, #0
ARM GAS  /tmp/ccfsJD7S.s 			page 2


  52 0012 00F20620 		addw	r0, r0, #518
  53              	.LVL1:
  54              		.loc 1 7 3 is_stmt 0 view .LVU7
  55 0016 FFF7FEFF 		bl	memset
  56              	.LVL2:
   8:Core/Src/comm_interface.c ****   memset(&(comm_data_h->plotter_rx),'\0',RX_BUFF_SIZE);
  57              		.loc 1 8 3 is_stmt 1 view .LVU8
  58 001a 2A46     		mov	r2, r5
  59 001c 0021     		movs	r1, #0
  60 001e 04F10800 		add	r0, r4, #8
  61 0022 FFF7FEFF 		bl	memset
  62              	.LVL3:
   9:Core/Src/comm_interface.c ****   memset(&(comm_data_h->flasher_tx),'\0',TX_BUFF_SIZE);
  63              		.loc 1 9 3 view .LVU9
  64 0026 2A46     		mov	r2, r5
  65 0028 0021     		movs	r1, #0
  66 002a 04F20530 		addw	r0, r4, #773
  67 002e FFF7FEFF 		bl	memset
  68              	.LVL4:
  10:Core/Src/comm_interface.c ****   memset(&(comm_data_h->plotter_tx),'\0',TX_BUFF_SIZE);
  69              		.loc 1 10 3 view .LVU10
  70 0032 2A46     		mov	r2, r5
  71 0034 0021     		movs	r1, #0
  72 0036 04F20710 		addw	r0, r4, #263
  73 003a FFF7FEFF 		bl	memset
  74              	.LVL5:
  11:Core/Src/comm_interface.c **** 
  12:Core/Src/comm_interface.c ****   return RETURN_OK;
  75              		.loc 1 12 3 view .LVU11
  13:Core/Src/comm_interface.c **** }
  76              		.loc 1 13 1 is_stmt 0 view .LVU12
  77 003e 0020     		movs	r0, #0
  78 0040 38BD     		pop	{r3, r4, r5, pc}
  79              	.LVL6:
  80              	.L4:
  81              		.loc 1 13 1 view .LVU13
  82 0042 00BF     		.align	2
  83              	.L3:
  84 0044 00000000 		.word	huart1
  85 0048 00000000 		.word	huart3
  86              		.cfi_endproc
  87              	.LFE65:
  89              		.section	.text.serveCommunication,"ax",%progbits
  90              		.align	1
  91              		.global	serveCommunication
  92              		.syntax unified
  93              		.thumb
  94              		.thumb_func
  95              		.fpu softvfp
  97              	serveCommunication:
  98              	.LVL7:
  99              	.LFB66:
  14:Core/Src/comm_interface.c **** 
  15:Core/Src/comm_interface.c **** uint8_t serveCommunication(struct comm_data *comm_data_h){
 100              		.loc 1 15 58 is_stmt 1 view -0
 101              		.cfi_startproc
 102              		@ args = 0, pretend = 0, frame = 0
ARM GAS  /tmp/ccfsJD7S.s 			page 3


 103              		@ frame_needed = 0, uses_anonymous_args = 0
 104              		@ link register save eliminated.
  16:Core/Src/comm_interface.c **** 
  17:Core/Src/comm_interface.c ****   return RETURN_OK;
 105              		.loc 1 17 3 view .LVU15
  18:Core/Src/comm_interface.c **** }
 106              		.loc 1 18 1 is_stmt 0 view .LVU16
 107 0000 0020     		movs	r0, #0
 108              	.LVL8:
 109              		.loc 1 18 1 view .LVU17
 110 0002 7047     		bx	lr
 111              		.cfi_endproc
 112              	.LFE66:
 114              		.section	.text.recieveFeedback,"ax",%progbits
 115              		.align	1
 116              		.global	recieveFeedback
 117              		.syntax unified
 118              		.thumb
 119              		.thumb_func
 120              		.fpu softvfp
 122              	recieveFeedback:
 123              	.LVL9:
 124              	.LFB67:
  19:Core/Src/comm_interface.c **** 
  20:Core/Src/comm_interface.c **** uint8_t recieveFeedback(struct setup_data *setup_data_h, struct comm_data *comm_data_h){
 125              		.loc 1 20 88 is_stmt 1 view -0
 126              		.cfi_startproc
 127              		@ args = 0, pretend = 0, frame = 0
 128              		@ frame_needed = 0, uses_anonymous_args = 0
 129              		@ link register save eliminated.
  21:Core/Src/comm_interface.c ****   
  22:Core/Src/comm_interface.c ****   return RETURN_OK;
 130              		.loc 1 22 3 view .LVU19
  23:Core/Src/comm_interface.c **** }
 131              		.loc 1 23 1 is_stmt 0 view .LVU20
 132 0000 0020     		movs	r0, #0
 133              	.LVL10:
 134              		.loc 1 23 1 view .LVU21
 135 0002 7047     		bx	lr
 136              		.cfi_endproc
 137              	.LFE67:
 139              		.section	.text.reportFail,"ax",%progbits
 140              		.align	1
 141              		.global	reportFail
 142              		.syntax unified
 143              		.thumb
 144              		.thumb_func
 145              		.fpu softvfp
 147              	reportFail:
 148              	.LVL11:
 149              	.LFB68:
  24:Core/Src/comm_interface.c **** 
  25:Core/Src/comm_interface.c **** uint8_t reportFail(struct setup_data *setup_data_h, struct comm_data *comm_data_h){
 150              		.loc 1 25 83 is_stmt 1 view -0
 151              		.cfi_startproc
 152              		@ args = 0, pretend = 0, frame = 0
 153              		@ frame_needed = 0, uses_anonymous_args = 0
ARM GAS  /tmp/ccfsJD7S.s 			page 4


 154              		@ link register save eliminated.
  26:Core/Src/comm_interface.c ****   
  27:Core/Src/comm_interface.c ****   return RETURN_OK;
 155              		.loc 1 27 3 view .LVU23
  28:Core/Src/comm_interface.c **** }
 156              		.loc 1 28 1 is_stmt 0 view .LVU24
 157 0000 0020     		movs	r0, #0
 158              	.LVL12:
 159              		.loc 1 28 1 view .LVU25
 160 0002 7047     		bx	lr
 161              		.cfi_endproc
 162              	.LFE68:
 164              		.text
 165              	.Letext0:
 166              		.file 2 "/usr/lib/gcc/arm-none-eabi/10.3.1/include/stdint.h"
 167              		.file 3 "Drivers/CMSIS/Device/ST/STM32F1xx/Include/stm32f103xb.h"
 168              		.file 4 "Drivers/STM32F1xx_HAL_Driver/Inc/stm32f1xx_hal_def.h"
 169              		.file 5 "Drivers/STM32F1xx_HAL_Driver/Inc/stm32f1xx_hal_dma.h"
 170              		.file 6 "Drivers/STM32F1xx_HAL_Driver/Inc/stm32f1xx_hal_uart.h"
 171              		.file 7 "Core/Inc/main.h"
 172              		.file 8 "Core/Inc/usart.h"
 173              		.file 9 "<built-in>"
ARM GAS  /tmp/ccfsJD7S.s 			page 5

