ARM GAS  /tmp/ccEVzRDf.s 			page 1


   1              		.cpu cortex-m3
   2              		.arch armv7-m
   3              		.fpu softvfp
   4              		.eabi_attribute 20, 1
   5              		.eabi_attribute 21, 1
   6              		.eabi_attribute 23, 3
   7              		.eabi_attribute 24, 1
   8              		.eabi_attribute 25, 1
   9              		.eabi_attribute 26, 1
  10              		.eabi_attribute 30, 1
  11              		.eabi_attribute 34, 1
  12              		.eabi_attribute 18, 4
  13              		.file	"joypad.c"
  14              		.text
  15              	.Ltext0:
  16              		.cfi_sections	.debug_frame
  17              		.file 1 "Core/Src/joypad.c"
  18              		.section	.text.getJoypadVals,"ax",%progbits
  19              		.align	1
  20              		.global	getJoypadVals
  21              		.syntax unified
  22              		.thumb
  23              		.thumb_func
  25              	getJoypadVals:
  26              	.LVL0:
  27              	.LFB65:
   1:Core/Src/joypad.c **** #include "joypad.h"
   2:Core/Src/joypad.c **** 
   3:Core/Src/joypad.c **** uint8_t getJoypadVals(uint8_t *joy_vals){
  28              		.loc 1 3 41 view -0
  29              		.cfi_startproc
  30              		@ args = 0, pretend = 0, frame = 0
  31              		@ frame_needed = 0, uses_anonymous_args = 0
  32              		.loc 1 3 41 is_stmt 0 view .LVU1
  33 0000 38B5     		push	{r3, r4, r5, lr}
  34              		.cfi_def_cfa_offset 16
  35              		.cfi_offset 3, -16
  36              		.cfi_offset 4, -12
  37              		.cfi_offset 5, -8
  38              		.cfi_offset 14, -4
  39 0002 0546     		mov	r5, r0
   4:Core/Src/joypad.c ****   HAL_Delay(500);
  40              		.loc 1 4 3 is_stmt 1 view .LVU2
  41 0004 4FF4FA70 		mov	r0, #500
  42              	.LVL1:
  43              		.loc 1 4 3 is_stmt 0 view .LVU3
  44 0008 FFF7FEFF 		bl	HAL_Delay
  45              	.LVL2:
   5:Core/Src/joypad.c ****   HAL_ADC_Start(&hadc1);
  46              		.loc 1 5 3 is_stmt 1 view .LVU4
  47 000c 0E4C     		ldr	r4, .L3
  48 000e 2046     		mov	r0, r4
  49 0010 FFF7FEFF 		bl	HAL_ADC_Start
  50              	.LVL3:
   6:Core/Src/joypad.c ****   HAL_ADC_PollForConversion(&hadc1,1);
  51              		.loc 1 6 3 view .LVU5
  52 0014 0121     		movs	r1, #1
ARM GAS  /tmp/ccEVzRDf.s 			page 2


  53 0016 2046     		mov	r0, r4
  54 0018 FFF7FEFF 		bl	HAL_ADC_PollForConversion
  55              	.LVL4:
   7:Core/Src/joypad.c ****   joy_vals[0] = (uint8_t) (HAL_ADC_GetValue(&hadc1)>>4);
  56              		.loc 1 7 3 view .LVU6
  57              		.loc 1 7 28 is_stmt 0 view .LVU7
  58 001c 2046     		mov	r0, r4
  59 001e FFF7FEFF 		bl	HAL_ADC_GetValue
  60              	.LVL5:
  61              		.loc 1 7 17 view .LVU8
  62 0022 C0F30710 		ubfx	r0, r0, #4, #8
  63              		.loc 1 7 15 view .LVU9
  64 0026 2870     		strb	r0, [r5]
   8:Core/Src/joypad.c **** 
   9:Core/Src/joypad.c ****   HAL_ADC_Start(&hadc1);
  65              		.loc 1 9 3 is_stmt 1 view .LVU10
  66 0028 2046     		mov	r0, r4
  67 002a FFF7FEFF 		bl	HAL_ADC_Start
  68              	.LVL6:
  10:Core/Src/joypad.c ****   HAL_ADC_PollForConversion(&hadc1,1);
  69              		.loc 1 10 3 view .LVU11
  70 002e 0121     		movs	r1, #1
  71 0030 2046     		mov	r0, r4
  72 0032 FFF7FEFF 		bl	HAL_ADC_PollForConversion
  73              	.LVL7:
  11:Core/Src/joypad.c ****   joy_vals[1] = (uint8_t) (HAL_ADC_GetValue(&hadc1)>>4);
  74              		.loc 1 11 3 view .LVU12
  75              		.loc 1 11 28 is_stmt 0 view .LVU13
  76 0036 2046     		mov	r0, r4
  77 0038 FFF7FEFF 		bl	HAL_ADC_GetValue
  78              	.LVL8:
  79              		.loc 1 11 17 view .LVU14
  80 003c C0F30710 		ubfx	r0, r0, #4, #8
  81              		.loc 1 11 15 view .LVU15
  82 0040 6870     		strb	r0, [r5, #1]
  12:Core/Src/joypad.c **** 
  13:Core/Src/joypad.c ****   return RETURN_OK;
  83              		.loc 1 13 3 is_stmt 1 view .LVU16
  14:Core/Src/joypad.c **** }...
  84              		.loc 1 14 1 is_stmt 0 view .LVU17
  85 0042 0020     		movs	r0, #0
  86 0044 38BD     		pop	{r3, r4, r5, pc}
  87              	.LVL9:
  88              	.L4:
  89              		.loc 1 14 1 view .LVU18
  90 0046 00BF     		.align	2
  91              	.L3:
  92 0048 00000000 		.word	hadc1
  93              		.cfi_endproc
  94              	.LFE65:
  96              		.text
  97              	.Letext0:
  98              		.file 2 "/usr/arm-none-eabi/include/machine/_default_types.h"
  99              		.file 3 "/usr/arm-none-eabi/include/sys/_stdint.h"
 100              		.file 4 "Drivers/CMSIS/Device/ST/STM32F1xx/Include/stm32f103xb.h"
 101              		.file 5 "Drivers/CMSIS/Device/ST/STM32F1xx/Include/stm32f1xx.h"
 102              		.file 6 "Drivers/STM32F1xx_HAL_Driver/Inc/stm32f1xx_hal_def.h"
ARM GAS  /tmp/ccEVzRDf.s 			page 3


 103              		.file 7 "Drivers/STM32F1xx_HAL_Driver/Inc/stm32f1xx_hal_dma.h"
 104              		.file 8 "Drivers/STM32F1xx_HAL_Driver/Inc/stm32f1xx_hal_adc.h"
 105              		.file 9 "Core/Inc/adc.h"
 106              		.file 10 "Drivers/STM32F1xx_HAL_Driver/Inc/stm32f1xx_hal.h"
ARM GAS  /tmp/ccEVzRDf.s 			page 4


DEFINED SYMBOLS
                            *ABS*:0000000000000000 joypad.c
     /tmp/ccEVzRDf.s:19     .text.getJoypadVals:0000000000000000 $t
     /tmp/ccEVzRDf.s:25     .text.getJoypadVals:0000000000000000 getJoypadVals
     /tmp/ccEVzRDf.s:92     .text.getJoypadVals:0000000000000048 $d

UNDEFINED SYMBOLS
HAL_Delay
HAL_ADC_Start
HAL_ADC_PollForConversion
HAL_ADC_GetValue
hadc1
