ARM GAS  /tmp/cciwOUGZ.s 			page 1


   1              		.cpu cortex-m3
   2              		.arch armv7-m
   3              		.fpu softvfp
   4              		.eabi_attribute 20, 1
   5              		.eabi_attribute 21, 1
   6              		.eabi_attribute 23, 3
   7              		.eabi_attribute 24, 1
   8              		.eabi_attribute 25, 1
   9              		.eabi_attribute 26, 1
  10              		.eabi_attribute 30, 1
  11              		.eabi_attribute 34, 1
  12              		.eabi_attribute 18, 4
  13              		.file	"joypad.c"
  14              		.text
  15              	.Ltext0:
  16              		.cfi_sections	.debug_frame
  17              		.file 1 "Core/Src/joypad.c"
  18              		.section	.text.getJoypadVals,"ax",%progbits
  19              		.align	1
  20              		.global	getJoypadVals
  21              		.syntax unified
  22              		.thumb
  23              		.thumb_func
  25              	getJoypadVals:
  26              	.LVL0:
  27              	.LFB65:
   1:Core/Src/joypad.c **** #include "joypad.h"
   2:Core/Src/joypad.c **** 
   3:Core/Src/joypad.c **** uint8_t getJoypadVals(uint8_t *joy_vals){
  28              		.loc 1 3 41 view -0
  29              		.cfi_startproc
  30              		@ args = 0, pretend = 0, frame = 0
  31              		@ frame_needed = 0, uses_anonymous_args = 0
  32              		.loc 1 3 41 is_stmt 0 view .LVU1
  33 0000 38B5     		push	{r3, r4, r5, lr}
  34              		.cfi_def_cfa_offset 16
  35              		.cfi_offset 3, -16
  36              		.cfi_offset 4, -12
  37              		.cfi_offset 5, -8
  38              		.cfi_offset 14, -4
  39 0002 0546     		mov	r5, r0
   4:Core/Src/joypad.c **** 
   5:Core/Src/joypad.c ****   HAL_ADC_Start(&hadc1);
  40              		.loc 1 5 3 is_stmt 1 view .LVU2
  41 0004 0E4C     		ldr	r4, .L3
  42 0006 2046     		mov	r0, r4
  43              	.LVL1:
  44              		.loc 1 5 3 is_stmt 0 view .LVU3
  45 0008 FFF7FEFF 		bl	HAL_ADC_Start
  46              	.LVL2:
   6:Core/Src/joypad.c ****   HAL_ADC_PollForConversion(&hadc1,1);
  47              		.loc 1 6 3 is_stmt 1 view .LVU4
  48 000c 0121     		movs	r1, #1
  49 000e 2046     		mov	r0, r4
  50 0010 FFF7FEFF 		bl	HAL_ADC_PollForConversion
  51              	.LVL3:
   7:Core/Src/joypad.c ****   joy_vals[0] = (uint8_t) (HAL_ADC_GetValue(&hadc1)>>4);
ARM GAS  /tmp/cciwOUGZ.s 			page 2


  52              		.loc 1 7 3 view .LVU5
  53              		.loc 1 7 28 is_stmt 0 view .LVU6
  54 0014 2046     		mov	r0, r4
  55 0016 FFF7FEFF 		bl	HAL_ADC_GetValue
  56              	.LVL4:
  57              		.loc 1 7 17 view .LVU7
  58 001a C0F30710 		ubfx	r0, r0, #4, #8
  59              		.loc 1 7 15 view .LVU8
  60 001e 2870     		strb	r0, [r5]
   8:Core/Src/joypad.c **** 
   9:Core/Src/joypad.c ****   HAL_ADC_Start(&hadc1);
  61              		.loc 1 9 3 is_stmt 1 view .LVU9
  62 0020 2046     		mov	r0, r4
  63 0022 FFF7FEFF 		bl	HAL_ADC_Start
  64              	.LVL5:
  10:Core/Src/joypad.c ****   HAL_ADC_PollForConversion(&hadc1,1);
  65              		.loc 1 10 3 view .LVU10
  66 0026 0121     		movs	r1, #1
  67 0028 2046     		mov	r0, r4
  68 002a FFF7FEFF 		bl	HAL_ADC_PollForConversion
  69              	.LVL6:
  11:Core/Src/joypad.c ****   joy_vals[1] = (uint8_t) (HAL_ADC_GetValue(&hadc1)>>4);
  70              		.loc 1 11 3 view .LVU11
  71              		.loc 1 11 28 is_stmt 0 view .LVU12
  72 002e 2046     		mov	r0, r4
  73 0030 FFF7FEFF 		bl	HAL_ADC_GetValue
  74              	.LVL7:
  75              		.loc 1 11 17 view .LVU13
  76 0034 C0F30710 		ubfx	r0, r0, #4, #8
  77              		.loc 1 11 15 view .LVU14
  78 0038 6870     		strb	r0, [r5, #1]
  12:Core/Src/joypad.c **** 
  13:Core/Src/joypad.c ****   return RETURN_OK;
  79              		.loc 1 13 3 is_stmt 1 view .LVU15
  14:Core/Src/joypad.c **** }...
  80              		.loc 1 14 1 is_stmt 0 view .LVU16
  81 003a 0020     		movs	r0, #0
  82 003c 38BD     		pop	{r3, r4, r5, pc}
  83              	.LVL8:
  84              	.L4:
  85              		.loc 1 14 1 view .LVU17
  86 003e 00BF     		.align	2
  87              	.L3:
  88 0040 00000000 		.word	hadc1
  89              		.cfi_endproc
  90              	.LFE65:
  92              		.text
  93              	.Letext0:
  94              		.file 2 "/usr/arm-none-eabi/include/machine/_default_types.h"
  95              		.file 3 "/usr/arm-none-eabi/include/sys/_stdint.h"
  96              		.file 4 "Drivers/CMSIS/Device/ST/STM32F1xx/Include/stm32f103xb.h"
  97              		.file 5 "Drivers/CMSIS/Device/ST/STM32F1xx/Include/stm32f1xx.h"
  98              		.file 6 "Drivers/STM32F1xx_HAL_Driver/Inc/stm32f1xx_hal_def.h"
  99              		.file 7 "Drivers/STM32F1xx_HAL_Driver/Inc/stm32f1xx_hal_dma.h"
 100              		.file 8 "Drivers/STM32F1xx_HAL_Driver/Inc/stm32f1xx_hal_adc.h"
 101              		.file 9 "Core/Inc/adc.h"
ARM GAS  /tmp/cciwOUGZ.s 			page 3

