ARM GAS  /tmp/ccwMV9eU.s 			page 1


   1              		.cpu cortex-m3
   2              		.eabi_attribute 20, 1
   3              		.eabi_attribute 21, 1
   4              		.eabi_attribute 23, 3
   5              		.eabi_attribute 24, 1
   6              		.eabi_attribute 25, 1
   7              		.eabi_attribute 26, 1
   8              		.eabi_attribute 30, 1
   9              		.eabi_attribute 34, 1
  10              		.eabi_attribute 18, 4
  11              		.file	"st7735.c"
  12              		.text
  13              	.Ltext0:
  14              		.cfi_sections	.debug_frame
  15              		.section	.text.ST7735_Select,"ax",%progbits
  16              		.align	1
  17              		.arch armv7-m
  18              		.syntax unified
  19              		.thumb
  20              		.thumb_func
  21              		.fpu softvfp
  23              	ST7735_Select:
  24              	.LFB65:
  25              		.file 1 "Core/Lib/st7735/st7735.c"
   1:Core/Lib/st7735/st7735.c **** /* vim: set ai et ts=4 sw=4: */
   2:Core/Lib/st7735/st7735.c **** #include "stm32f1xx_hal.h"
   3:Core/Lib/st7735/st7735.c **** #include "st7735.h"
   4:Core/Lib/st7735/st7735.c **** #include "malloc.h"
   5:Core/Lib/st7735/st7735.c **** #include "string.h"
   6:Core/Lib/st7735/st7735.c **** 
   7:Core/Lib/st7735/st7735.c **** #define DELAY 0x80
   8:Core/Lib/st7735/st7735.c **** 
   9:Core/Lib/st7735/st7735.c **** // based on Adafruit ST7735 library for Arduino
  10:Core/Lib/st7735/st7735.c **** static const uint8_t
  11:Core/Lib/st7735/st7735.c ****   init_cmds1[] = {            // Init for 7735R, part 1 (red or green tab)
  12:Core/Lib/st7735/st7735.c ****     15,                       // 15 commands in list:
  13:Core/Lib/st7735/st7735.c ****     ST7735_SWRESET,   DELAY,  //  1: Software reset, 0 args, w/delay
  14:Core/Lib/st7735/st7735.c ****       150,                    //     150 ms delay
  15:Core/Lib/st7735/st7735.c ****     ST7735_SLPOUT ,   DELAY,  //  2: Out of sleep mode, 0 args, w/delay
  16:Core/Lib/st7735/st7735.c ****       255,                    //     500 ms delay
  17:Core/Lib/st7735/st7735.c ****     ST7735_FRMCTR1, 3      ,  //  3: Frame rate ctrl - normal mode, 3 args:
  18:Core/Lib/st7735/st7735.c ****       0x01, 0x2C, 0x2D,       //     Rate = fosc/(1x2+40) * (LINE+2C+2D)
  19:Core/Lib/st7735/st7735.c ****     ST7735_FRMCTR2, 3      ,  //  4: Frame rate control - idle mode, 3 args:
  20:Core/Lib/st7735/st7735.c ****       0x01, 0x2C, 0x2D,       //     Rate = fosc/(1x2+40) * (LINE+2C+2D)
  21:Core/Lib/st7735/st7735.c ****     ST7735_FRMCTR3, 6      ,  //  5: Frame rate ctrl - partial mode, 6 args:
  22:Core/Lib/st7735/st7735.c ****       0x01, 0x2C, 0x2D,       //     Dot inversion mode
  23:Core/Lib/st7735/st7735.c ****       0x01, 0x2C, 0x2D,       //     Line inversion mode
  24:Core/Lib/st7735/st7735.c ****     ST7735_INVCTR , 1      ,  //  6: Display inversion ctrl, 1 arg, no delay:
  25:Core/Lib/st7735/st7735.c ****       0x07,                   //     No inversion
  26:Core/Lib/st7735/st7735.c ****     ST7735_PWCTR1 , 3      ,  //  7: Power control, 3 args, no delay:
  27:Core/Lib/st7735/st7735.c ****       0xA2,
  28:Core/Lib/st7735/st7735.c ****       0x02,                   //     -4.6V
  29:Core/Lib/st7735/st7735.c ****       0x84,                   //     AUTO mode
  30:Core/Lib/st7735/st7735.c ****     ST7735_PWCTR2 , 1      ,  //  8: Power control, 1 arg, no delay:
  31:Core/Lib/st7735/st7735.c ****       0xC5,                   //     VGH25 = 2.4C VGSEL = -10 VGH = 3 * AVDD
  32:Core/Lib/st7735/st7735.c ****     ST7735_PWCTR3 , 2      ,  //  9: Power control, 2 args, no delay:
  33:Core/Lib/st7735/st7735.c ****       0x0A,                   //     Opamp current small
ARM GAS  /tmp/ccwMV9eU.s 			page 2


  34:Core/Lib/st7735/st7735.c ****       0x00,                   //     Boost frequency
  35:Core/Lib/st7735/st7735.c ****     ST7735_PWCTR4 , 2      ,  // 10: Power control, 2 args, no delay:
  36:Core/Lib/st7735/st7735.c ****       0x8A,                   //     BCLK/2, Opamp current small & Medium low
  37:Core/Lib/st7735/st7735.c ****       0x2A,  
  38:Core/Lib/st7735/st7735.c ****     ST7735_PWCTR5 , 2      ,  // 11: Power control, 2 args, no delay:
  39:Core/Lib/st7735/st7735.c ****       0x8A, 0xEE,
  40:Core/Lib/st7735/st7735.c ****     ST7735_VMCTR1 , 1      ,  // 12: Power control, 1 arg, no delay:
  41:Core/Lib/st7735/st7735.c ****       0x0E,
  42:Core/Lib/st7735/st7735.c ****     ST7735_INVOFF , 0      ,  // 13: Don't invert display, no args, no delay
  43:Core/Lib/st7735/st7735.c ****     ST7735_MADCTL , 1      ,  // 14: Memory access control (directions), 1 arg:
  44:Core/Lib/st7735/st7735.c ****       ST7735_ROTATION,        //     row addr/col addr, bottom to top refresh
  45:Core/Lib/st7735/st7735.c ****     ST7735_COLMOD , 1      ,  // 15: set color mode, 1 arg, no delay:
  46:Core/Lib/st7735/st7735.c ****       0x05 },                 //     16-bit color
  47:Core/Lib/st7735/st7735.c **** 
  48:Core/Lib/st7735/st7735.c **** #if (defined(ST7735_IS_128X128) || defined(ST7735_IS_160X128))
  49:Core/Lib/st7735/st7735.c ****   init_cmds2[] = {            // Init for 7735R, part 2 (1.44" display)
  50:Core/Lib/st7735/st7735.c ****     2,                        //  2 commands in list:
  51:Core/Lib/st7735/st7735.c ****     ST7735_CASET  , 4      ,  //  1: Column addr set, 4 args, no delay:
  52:Core/Lib/st7735/st7735.c ****       0x00, 0x00,             //     XSTART = 0
  53:Core/Lib/st7735/st7735.c ****       0x00, 0x7F,             //     XEND = 127
  54:Core/Lib/st7735/st7735.c ****     ST7735_RASET  , 4      ,  //  2: Row addr set, 4 args, no delay:
  55:Core/Lib/st7735/st7735.c ****       0x00, 0x00,             //     XSTART = 0
  56:Core/Lib/st7735/st7735.c ****       0x00, 0x7F },           //     XEND = 127
  57:Core/Lib/st7735/st7735.c **** #endif // ST7735_IS_128X128
  58:Core/Lib/st7735/st7735.c **** 
  59:Core/Lib/st7735/st7735.c **** #ifdef ST7735_IS_160X80
  60:Core/Lib/st7735/st7735.c ****   init_cmds2[] = {            // Init for 7735S, part 2 (160x80 display)
  61:Core/Lib/st7735/st7735.c ****     3,                        //  3 commands in list:
  62:Core/Lib/st7735/st7735.c ****     ST7735_CASET  , 4      ,  //  1: Column addr set, 4 args, no delay:
  63:Core/Lib/st7735/st7735.c ****       0x00, 0x00,             //     XSTART = 0
  64:Core/Lib/st7735/st7735.c ****       0x00, 0x4F,             //     XEND = 79
  65:Core/Lib/st7735/st7735.c ****     ST7735_RASET  , 4      ,  //  2: Row addr set, 4 args, no delay:
  66:Core/Lib/st7735/st7735.c ****       0x00, 0x00,             //     XSTART = 0
  67:Core/Lib/st7735/st7735.c ****       0x00, 0x9F ,            //     XEND = 159
  68:Core/Lib/st7735/st7735.c ****     ST7735_INVON, 0 },        //  3: Invert colors
  69:Core/Lib/st7735/st7735.c **** #endif
  70:Core/Lib/st7735/st7735.c **** 
  71:Core/Lib/st7735/st7735.c ****   init_cmds3[] = {            // Init for 7735R, part 3 (red or green tab)
  72:Core/Lib/st7735/st7735.c ****     4,                        //  4 commands in list:
  73:Core/Lib/st7735/st7735.c ****     ST7735_GMCTRP1, 16      , //  1: Gamma Adjustments (pos. polarity), 16 args, no delay:
  74:Core/Lib/st7735/st7735.c ****       0x02, 0x1c, 0x07, 0x12,
  75:Core/Lib/st7735/st7735.c ****       0x37, 0x32, 0x29, 0x2d,
  76:Core/Lib/st7735/st7735.c ****       0x29, 0x25, 0x2B, 0x39,
  77:Core/Lib/st7735/st7735.c ****       0x00, 0x01, 0x03, 0x10,
  78:Core/Lib/st7735/st7735.c ****     ST7735_GMCTRN1, 16      , //  2: Gamma Adjustments (neg. polarity), 16 args, no delay:
  79:Core/Lib/st7735/st7735.c ****       0x03, 0x1d, 0x07, 0x06,
  80:Core/Lib/st7735/st7735.c ****       0x2E, 0x2C, 0x29, 0x2D,
  81:Core/Lib/st7735/st7735.c ****       0x2E, 0x2E, 0x37, 0x3F,
  82:Core/Lib/st7735/st7735.c ****       0x00, 0x00, 0x02, 0x10,
  83:Core/Lib/st7735/st7735.c ****     ST7735_NORON  ,    DELAY, //  3: Normal display on, no args, w/delay
  84:Core/Lib/st7735/st7735.c ****       10,                     //     10 ms delay
  85:Core/Lib/st7735/st7735.c ****     ST7735_DISPON ,    DELAY, //  4: Main screen turn on, no args w/delay
  86:Core/Lib/st7735/st7735.c ****       100 };                  //     100 ms delay
  87:Core/Lib/st7735/st7735.c **** 
  88:Core/Lib/st7735/st7735.c **** static void ST7735_Select() {
  26              		.loc 1 88 29 view -0
  27              		.cfi_startproc
ARM GAS  /tmp/ccwMV9eU.s 			page 3


  28              		@ args = 0, pretend = 0, frame = 0
  29              		@ frame_needed = 0, uses_anonymous_args = 0
  30 0000 08B5     		push	{r3, lr}
  31              		.cfi_def_cfa_offset 8
  32              		.cfi_offset 3, -8
  33              		.cfi_offset 14, -4
  89:Core/Lib/st7735/st7735.c ****     HAL_GPIO_WritePin(ST7735_CS_GPIO_Port, ST7735_CS_Pin, GPIO_PIN_RESET);
  34              		.loc 1 89 5 view .LVU1
  35 0002 0022     		movs	r2, #0
  36 0004 4FF48071 		mov	r1, #256
  37 0008 0148     		ldr	r0, .L3
  38 000a FFF7FEFF 		bl	HAL_GPIO_WritePin
  39              	.LVL0:
  90:Core/Lib/st7735/st7735.c **** }
  40              		.loc 1 90 1 is_stmt 0 view .LVU2
  41 000e 08BD     		pop	{r3, pc}
  42              	.L4:
  43              		.align	2
  44              	.L3:
  45 0010 000C0140 		.word	1073810432
  46              		.cfi_endproc
  47              	.LFE65:
  49              		.section	.text.ST7735_Reset,"ax",%progbits
  50              		.align	1
  51              		.syntax unified
  52              		.thumb
  53              		.thumb_func
  54              		.fpu softvfp
  56              	ST7735_Reset:
  57              	.LFB67:
  91:Core/Lib/st7735/st7735.c **** 
  92:Core/Lib/st7735/st7735.c **** void ST7735_Unselect() {
  93:Core/Lib/st7735/st7735.c ****     HAL_GPIO_WritePin(ST7735_CS_GPIO_Port, ST7735_CS_Pin, GPIO_PIN_SET);
  94:Core/Lib/st7735/st7735.c **** }
  95:Core/Lib/st7735/st7735.c **** 
  96:Core/Lib/st7735/st7735.c **** static void ST7735_Reset() {
  58              		.loc 1 96 28 is_stmt 1 view -0
  59              		.cfi_startproc
  60              		@ args = 0, pretend = 0, frame = 0
  61              		@ frame_needed = 0, uses_anonymous_args = 0
  62 0000 10B5     		push	{r4, lr}
  63              		.cfi_def_cfa_offset 8
  64              		.cfi_offset 4, -8
  65              		.cfi_offset 14, -4
  97:Core/Lib/st7735/st7735.c ****     HAL_GPIO_WritePin(ST7735_RES_GPIO_Port, ST7735_RES_Pin, GPIO_PIN_RESET);
  66              		.loc 1 97 5 view .LVU4
  67 0002 074C     		ldr	r4, .L7
  68 0004 0022     		movs	r2, #0
  69 0006 4021     		movs	r1, #64
  70 0008 2046     		mov	r0, r4
  71 000a FFF7FEFF 		bl	HAL_GPIO_WritePin
  72              	.LVL1:
  98:Core/Lib/st7735/st7735.c ****     HAL_Delay(5);
  73              		.loc 1 98 5 view .LVU5
  74 000e 0520     		movs	r0, #5
  75 0010 FFF7FEFF 		bl	HAL_Delay
  76              	.LVL2:
ARM GAS  /tmp/ccwMV9eU.s 			page 4


  99:Core/Lib/st7735/st7735.c ****     HAL_GPIO_WritePin(ST7735_RES_GPIO_Port, ST7735_RES_Pin, GPIO_PIN_SET);
  77              		.loc 1 99 5 view .LVU6
  78 0014 0122     		movs	r2, #1
  79 0016 4021     		movs	r1, #64
  80 0018 2046     		mov	r0, r4
  81 001a FFF7FEFF 		bl	HAL_GPIO_WritePin
  82              	.LVL3:
 100:Core/Lib/st7735/st7735.c **** }
  83              		.loc 1 100 1 is_stmt 0 view .LVU7
  84 001e 10BD     		pop	{r4, pc}
  85              	.L8:
  86              		.align	2
  87              	.L7:
  88 0020 000C0140 		.word	1073810432
  89              		.cfi_endproc
  90              	.LFE67:
  92              		.section	.text.ST7735_WriteCommand,"ax",%progbits
  93              		.align	1
  94              		.syntax unified
  95              		.thumb
  96              		.thumb_func
  97              		.fpu softvfp
  99              	ST7735_WriteCommand:
 100              	.LVL4:
 101              	.LFB68:
 101:Core/Lib/st7735/st7735.c **** 
 102:Core/Lib/st7735/st7735.c **** static void ST7735_WriteCommand(uint8_t cmd) {
 102              		.loc 1 102 46 is_stmt 1 view -0
 103              		.cfi_startproc
 104              		@ args = 0, pretend = 0, frame = 8
 105              		@ frame_needed = 0, uses_anonymous_args = 0
 106              		.loc 1 102 46 is_stmt 0 view .LVU9
 107 0000 00B5     		push	{lr}
 108              		.cfi_def_cfa_offset 4
 109              		.cfi_offset 14, -4
 110 0002 83B0     		sub	sp, sp, #12
 111              		.cfi_def_cfa_offset 16
 112 0004 8DF80700 		strb	r0, [sp, #7]
 103:Core/Lib/st7735/st7735.c ****     HAL_GPIO_WritePin(ST7735_DC_GPIO_Port, ST7735_DC_Pin, GPIO_PIN_RESET);
 113              		.loc 1 103 5 is_stmt 1 view .LVU10
 114 0008 0022     		movs	r2, #0
 115 000a 8021     		movs	r1, #128
 116 000c 0648     		ldr	r0, .L11
 117              	.LVL5:
 118              		.loc 1 103 5 is_stmt 0 view .LVU11
 119 000e FFF7FEFF 		bl	HAL_GPIO_WritePin
 120              	.LVL6:
 104:Core/Lib/st7735/st7735.c ****     HAL_SPI_Transmit(&ST7735_SPI_PORT, &cmd, sizeof(cmd), 10);
 121              		.loc 1 104 5 is_stmt 1 view .LVU12
 122 0012 0A23     		movs	r3, #10
 123 0014 0122     		movs	r2, #1
 124 0016 0DF10701 		add	r1, sp, #7
 125 001a 0448     		ldr	r0, .L11+4
 126 001c FFF7FEFF 		bl	HAL_SPI_Transmit
 127              	.LVL7:
 105:Core/Lib/st7735/st7735.c **** }
 128              		.loc 1 105 1 is_stmt 0 view .LVU13
ARM GAS  /tmp/ccwMV9eU.s 			page 5


 129 0020 03B0     		add	sp, sp, #12
 130              		.cfi_def_cfa_offset 4
 131              		@ sp needed
 132 0022 5DF804FB 		ldr	pc, [sp], #4
 133              	.L12:
 134 0026 00BF     		.align	2
 135              	.L11:
 136 0028 000C0140 		.word	1073810432
 137 002c 00000000 		.word	hspi2
 138              		.cfi_endproc
 139              	.LFE68:
 141              		.section	.text.ST7735_WriteData,"ax",%progbits
 142              		.align	1
 143              		.syntax unified
 144              		.thumb
 145              		.thumb_func
 146              		.fpu softvfp
 148              	ST7735_WriteData:
 149              	.LVL8:
 150              	.LFB69:
 106:Core/Lib/st7735/st7735.c **** 
 107:Core/Lib/st7735/st7735.c **** static void ST7735_WriteData(uint8_t* buff, size_t buff_size) {
 151              		.loc 1 107 63 is_stmt 1 view -0
 152              		.cfi_startproc
 153              		@ args = 0, pretend = 0, frame = 0
 154              		@ frame_needed = 0, uses_anonymous_args = 0
 155              		.loc 1 107 63 is_stmt 0 view .LVU15
 156 0000 38B5     		push	{r3, r4, r5, lr}
 157              		.cfi_def_cfa_offset 16
 158              		.cfi_offset 3, -16
 159              		.cfi_offset 4, -12
 160              		.cfi_offset 5, -8
 161              		.cfi_offset 14, -4
 162 0002 0446     		mov	r4, r0
 163 0004 0D46     		mov	r5, r1
 108:Core/Lib/st7735/st7735.c ****     HAL_GPIO_WritePin(ST7735_DC_GPIO_Port, ST7735_DC_Pin, GPIO_PIN_SET);
 164              		.loc 1 108 5 is_stmt 1 view .LVU16
 165 0006 0122     		movs	r2, #1
 166 0008 8021     		movs	r1, #128
 167              	.LVL9:
 168              		.loc 1 108 5 is_stmt 0 view .LVU17
 169 000a 0548     		ldr	r0, .L15
 170              	.LVL10:
 171              		.loc 1 108 5 view .LVU18
 172 000c FFF7FEFF 		bl	HAL_GPIO_WritePin
 173              	.LVL11:
 109:Core/Lib/st7735/st7735.c ****     HAL_SPI_Transmit(&ST7735_SPI_PORT, buff, buff_size, 10);
 174              		.loc 1 109 5 is_stmt 1 view .LVU19
 175 0010 0A23     		movs	r3, #10
 176 0012 AAB2     		uxth	r2, r5
 177 0014 2146     		mov	r1, r4
 178 0016 0348     		ldr	r0, .L15+4
 179 0018 FFF7FEFF 		bl	HAL_SPI_Transmit
 180              	.LVL12:
 110:Core/Lib/st7735/st7735.c **** }
 181              		.loc 1 110 1 is_stmt 0 view .LVU20
 182 001c 38BD     		pop	{r3, r4, r5, pc}
ARM GAS  /tmp/ccwMV9eU.s 			page 6


 183              	.LVL13:
 184              	.L16:
 185              		.loc 1 110 1 view .LVU21
 186 001e 00BF     		.align	2
 187              	.L15:
 188 0020 000C0140 		.word	1073810432
 189 0024 00000000 		.word	hspi2
 190              		.cfi_endproc
 191              	.LFE69:
 193              		.section	.text.ST7735_ExecuteCommandList,"ax",%progbits
 194              		.align	1
 195              		.syntax unified
 196              		.thumb
 197              		.thumb_func
 198              		.fpu softvfp
 200              	ST7735_ExecuteCommandList:
 201              	.LVL14:
 202              	.LFB70:
 111:Core/Lib/st7735/st7735.c **** 
 112:Core/Lib/st7735/st7735.c **** static void ST7735_ExecuteCommandList(const uint8_t *addr) {
 203              		.loc 1 112 60 is_stmt 1 view -0
 204              		.cfi_startproc
 205              		@ args = 0, pretend = 0, frame = 0
 206              		@ frame_needed = 0, uses_anonymous_args = 0
 207              		.loc 1 112 60 is_stmt 0 view .LVU23
 208 0000 F8B5     		push	{r3, r4, r5, r6, r7, lr}
 209              		.cfi_def_cfa_offset 24
 210              		.cfi_offset 3, -24
 211              		.cfi_offset 4, -20
 212              		.cfi_offset 5, -16
 213              		.cfi_offset 6, -12
 214              		.cfi_offset 7, -8
 215              		.cfi_offset 14, -4
 113:Core/Lib/st7735/st7735.c ****     uint8_t numCommands, numArgs;
 216              		.loc 1 113 5 is_stmt 1 view .LVU24
 114:Core/Lib/st7735/st7735.c ****     uint16_t ms;
 217              		.loc 1 114 5 view .LVU25
 115:Core/Lib/st7735/st7735.c **** 
 116:Core/Lib/st7735/st7735.c ****     numCommands = *addr++;
 218              		.loc 1 116 5 view .LVU26
 219              		.loc 1 116 24 is_stmt 0 view .LVU27
 220 0002 0646     		mov	r6, r0
 221              	.LVL15:
 222              		.loc 1 116 17 view .LVU28
 223 0004 16F8012B 		ldrb	r2, [r6], #1	@ zero_extendqisi2
 224              	.LVL16:
 117:Core/Lib/st7735/st7735.c ****     while(numCommands--) {
 225              		.loc 1 117 5 is_stmt 1 view .LVU29
 226              		.loc 1 117 10 is_stmt 0 view .LVU30
 227 0008 09E0     		b	.L18
 228              	.LVL17:
 229              	.L26:
 230              	.LBB2:
 118:Core/Lib/st7735/st7735.c ****         uint8_t cmd = *addr++;
 119:Core/Lib/st7735/st7735.c ****         ST7735_WriteCommand(cmd);
 120:Core/Lib/st7735/st7735.c **** 
 121:Core/Lib/st7735/st7735.c ****         numArgs = *addr++;
ARM GAS  /tmp/ccwMV9eU.s 			page 7


 122:Core/Lib/st7735/st7735.c ****         // If high bit set, delay follows args
 123:Core/Lib/st7735/st7735.c ****         ms = numArgs & DELAY;
 124:Core/Lib/st7735/st7735.c ****         numArgs &= ~DELAY;
 125:Core/Lib/st7735/st7735.c ****         if(numArgs) {
 126:Core/Lib/st7735/st7735.c ****             ST7735_WriteData((uint8_t*)addr, numArgs);
 231              		.loc 1 126 13 is_stmt 1 view .LVU31
 232 000a 3946     		mov	r1, r7
 233 000c 2046     		mov	r0, r4
 234 000e FFF7FEFF 		bl	ST7735_WriteData
 235              	.LVL18:
 127:Core/Lib/st7735/st7735.c ****             addr += numArgs;
 236              		.loc 1 127 13 view .LVU32
 237              		.loc 1 127 18 is_stmt 0 view .LVU33
 238 0012 3C44     		add	r4, r4, r7
 239              	.LVL19:
 240              		.loc 1 127 18 view .LVU34
 241 0014 0FE0     		b	.L19
 242              	.LVL20:
 243              	.L21:
 128:Core/Lib/st7735/st7735.c ****         }
 129:Core/Lib/st7735/st7735.c **** 
 130:Core/Lib/st7735/st7735.c ****         if(ms) {
 131:Core/Lib/st7735/st7735.c ****             ms = *addr++;
 132:Core/Lib/st7735/st7735.c ****             if(ms == 255) ms = 500;
 133:Core/Lib/st7735/st7735.c ****             HAL_Delay(ms);
 244              		.loc 1 133 13 is_stmt 1 view .LVU35
 245 0016 FFF7FEFF 		bl	HAL_Delay
 246              	.LVL21:
 247              	.L20:
 131:Core/Lib/st7735/st7735.c ****             if(ms == 255) ms = 500;
 248              		.loc 1 131 23 is_stmt 0 view .LVU36
 249 001a 2A46     		mov	r2, r5
 250 001c 2646     		mov	r6, r4
 251              	.LVL22:
 252              	.L18:
 131:Core/Lib/st7735/st7735.c ****             if(ms == 255) ms = 500;
 253              		.loc 1 131 23 view .LVU37
 254              	.LBE2:
 117:Core/Lib/st7735/st7735.c ****         uint8_t cmd = *addr++;
 255              		.loc 1 117 10 is_stmt 1 view .LVU38
 117:Core/Lib/st7735/st7735.c ****         uint8_t cmd = *addr++;
 256              		.loc 1 117 22 is_stmt 0 view .LVU39
 257 001e 531E     		subs	r3, r2, #1
 258 0020 DDB2     		uxtb	r5, r3
 259              	.LVL23:
 117:Core/Lib/st7735/st7735.c ****         uint8_t cmd = *addr++;
 260              		.loc 1 117 10 view .LVU40
 261 0022 92B1     		cbz	r2, .L25
 262              	.LBB3:
 118:Core/Lib/st7735/st7735.c ****         ST7735_WriteCommand(cmd);
 263              		.loc 1 118 9 is_stmt 1 view .LVU41
 264              	.LVL24:
 118:Core/Lib/st7735/st7735.c ****         ST7735_WriteCommand(cmd);
 265              		.loc 1 118 17 is_stmt 0 view .LVU42
 266 0024 3446     		mov	r4, r6
 267              	.LVL25:
 119:Core/Lib/st7735/st7735.c **** 
ARM GAS  /tmp/ccwMV9eU.s 			page 8


 268              		.loc 1 119 9 is_stmt 1 view .LVU43
 269 0026 14F8020B 		ldrb	r0, [r4], #2	@ zero_extendqisi2
 270 002a FFF7FEFF 		bl	ST7735_WriteCommand
 271              	.LVL26:
 121:Core/Lib/st7735/st7735.c ****         // If high bit set, delay follows args
 272              		.loc 1 121 9 view .LVU44
 121:Core/Lib/st7735/st7735.c ****         // If high bit set, delay follows args
 273              		.loc 1 121 17 is_stmt 0 view .LVU45
 274 002e 7678     		ldrb	r6, [r6, #1]	@ zero_extendqisi2
 275              	.LVL27:
 123:Core/Lib/st7735/st7735.c ****         numArgs &= ~DELAY;
 276              		.loc 1 123 9 is_stmt 1 view .LVU46
 124:Core/Lib/st7735/st7735.c ****         if(numArgs) {
 277              		.loc 1 124 9 view .LVU47
 125:Core/Lib/st7735/st7735.c ****             ST7735_WriteData((uint8_t*)addr, numArgs);
 278              		.loc 1 125 9 view .LVU48
 125:Core/Lib/st7735/st7735.c ****             ST7735_WriteData((uint8_t*)addr, numArgs);
 279              		.loc 1 125 11 is_stmt 0 view .LVU49
 280 0030 16F07F07 		ands	r7, r6, #127
 281 0034 E9D1     		bne	.L26
 282              	.L19:
 130:Core/Lib/st7735/st7735.c ****             ms = *addr++;
 283              		.loc 1 130 9 is_stmt 1 view .LVU50
 130:Core/Lib/st7735/st7735.c ****             ms = *addr++;
 284              		.loc 1 130 11 is_stmt 0 view .LVU51
 285 0036 16F0800F 		tst	r6, #128
 286 003a EED0     		beq	.L20
 131:Core/Lib/st7735/st7735.c ****             if(ms == 255) ms = 500;
 287              		.loc 1 131 13 is_stmt 1 view .LVU52
 288              	.LVL28:
 131:Core/Lib/st7735/st7735.c ****             if(ms == 255) ms = 500;
 289              		.loc 1 131 16 is_stmt 0 view .LVU53
 290 003c 14F8010B 		ldrb	r0, [r4], #1	@ zero_extendqisi2
 291              	.LVL29:
 132:Core/Lib/st7735/st7735.c ****             HAL_Delay(ms);
 292              		.loc 1 132 13 is_stmt 1 view .LVU54
 132:Core/Lib/st7735/st7735.c ****             HAL_Delay(ms);
 293              		.loc 1 132 15 is_stmt 0 view .LVU55
 294 0040 FF28     		cmp	r0, #255
 295 0042 E8D1     		bne	.L21
 132:Core/Lib/st7735/st7735.c ****             HAL_Delay(ms);
 296              		.loc 1 132 30 view .LVU56
 297 0044 4FF4FA70 		mov	r0, #500
 298              	.LVL30:
 132:Core/Lib/st7735/st7735.c ****             HAL_Delay(ms);
 299              		.loc 1 132 30 view .LVU57
 300 0048 E5E7     		b	.L21
 301              	.LVL31:
 302              	.L25:
 132:Core/Lib/st7735/st7735.c ****             HAL_Delay(ms);
 303              		.loc 1 132 30 view .LVU58
 304              	.LBE3:
 134:Core/Lib/st7735/st7735.c ****         }
 135:Core/Lib/st7735/st7735.c ****     }
 136:Core/Lib/st7735/st7735.c **** }
 305              		.loc 1 136 1 view .LVU59
 306 004a F8BD     		pop	{r3, r4, r5, r6, r7, pc}
ARM GAS  /tmp/ccwMV9eU.s 			page 9


 307              		.loc 1 136 1 view .LVU60
 308              		.cfi_endproc
 309              	.LFE70:
 311              		.section	.text.ST7735_SetAddressWindow,"ax",%progbits
 312              		.align	1
 313              		.syntax unified
 314              		.thumb
 315              		.thumb_func
 316              		.fpu softvfp
 318              	ST7735_SetAddressWindow:
 319              	.LVL32:
 320              	.LFB71:
 137:Core/Lib/st7735/st7735.c **** 
 138:Core/Lib/st7735/st7735.c **** static void ST7735_SetAddressWindow(uint8_t x0, uint8_t y0, uint8_t x1, uint8_t y1) {
 321              		.loc 1 138 85 is_stmt 1 view -0
 322              		.cfi_startproc
 323              		@ args = 0, pretend = 0, frame = 8
 324              		@ frame_needed = 0, uses_anonymous_args = 0
 325              		.loc 1 138 85 is_stmt 0 view .LVU62
 326 0000 F0B5     		push	{r4, r5, r6, r7, lr}
 327              		.cfi_def_cfa_offset 20
 328              		.cfi_offset 4, -20
 329              		.cfi_offset 5, -16
 330              		.cfi_offset 6, -12
 331              		.cfi_offset 7, -8
 332              		.cfi_offset 14, -4
 333 0002 83B0     		sub	sp, sp, #12
 334              		.cfi_def_cfa_offset 32
 335 0004 0746     		mov	r7, r0
 336 0006 0D46     		mov	r5, r1
 337 0008 1646     		mov	r6, r2
 338 000a 1C46     		mov	r4, r3
 139:Core/Lib/st7735/st7735.c ****     // column address set
 140:Core/Lib/st7735/st7735.c ****     ST7735_WriteCommand(ST7735_CASET);
 339              		.loc 1 140 5 is_stmt 1 view .LVU63
 340 000c 2A20     		movs	r0, #42
 341              	.LVL33:
 342              		.loc 1 140 5 is_stmt 0 view .LVU64
 343 000e FFF7FEFF 		bl	ST7735_WriteCommand
 344              	.LVL34:
 141:Core/Lib/st7735/st7735.c ****     uint8_t data[] = { 0x00, x0 + ST7735_XSTART, 0x00, x1 + ST7735_XSTART };
 345              		.loc 1 141 5 is_stmt 1 view .LVU65
 346              		.loc 1 141 13 is_stmt 0 view .LVU66
 347 0012 0023     		movs	r3, #0
 348 0014 8DF80430 		strb	r3, [sp, #4]
 349              		.loc 1 141 33 view .LVU67
 350 0018 0137     		adds	r7, r7, #1
 351              		.loc 1 141 13 view .LVU68
 352 001a 8DF80570 		strb	r7, [sp, #5]
 353 001e 8DF80630 		strb	r3, [sp, #6]
 354              		.loc 1 141 59 view .LVU69
 355 0022 0136     		adds	r6, r6, #1
 356              		.loc 1 141 13 view .LVU70
 357 0024 8DF80760 		strb	r6, [sp, #7]
 142:Core/Lib/st7735/st7735.c ****     ST7735_WriteData(data, sizeof(data));
 358              		.loc 1 142 5 is_stmt 1 view .LVU71
 359 0028 0421     		movs	r1, #4
ARM GAS  /tmp/ccwMV9eU.s 			page 10


 360 002a 0DEB0100 		add	r0, sp, r1
 361 002e FFF7FEFF 		bl	ST7735_WriteData
 362              	.LVL35:
 143:Core/Lib/st7735/st7735.c **** 
 144:Core/Lib/st7735/st7735.c ****     // row address set
 145:Core/Lib/st7735/st7735.c ****     ST7735_WriteCommand(ST7735_RASET);
 363              		.loc 1 145 5 view .LVU72
 364 0032 2B20     		movs	r0, #43
 365 0034 FFF7FEFF 		bl	ST7735_WriteCommand
 366              	.LVL36:
 146:Core/Lib/st7735/st7735.c ****     data[1] = y0 + ST7735_YSTART;
 367              		.loc 1 146 5 view .LVU73
 368              		.loc 1 146 18 is_stmt 0 view .LVU74
 369 0038 0235     		adds	r5, r5, #2
 370              		.loc 1 146 13 view .LVU75
 371 003a 8DF80550 		strb	r5, [sp, #5]
 147:Core/Lib/st7735/st7735.c ****     data[3] = y1 + ST7735_YSTART;
 372              		.loc 1 147 5 is_stmt 1 view .LVU76
 373              		.loc 1 147 18 is_stmt 0 view .LVU77
 374 003e 0234     		adds	r4, r4, #2
 375              		.loc 1 147 13 view .LVU78
 376 0040 8DF80740 		strb	r4, [sp, #7]
 148:Core/Lib/st7735/st7735.c ****     ST7735_WriteData(data, sizeof(data));
 377              		.loc 1 148 5 is_stmt 1 view .LVU79
 378 0044 0421     		movs	r1, #4
 379 0046 0DEB0100 		add	r0, sp, r1
 380 004a FFF7FEFF 		bl	ST7735_WriteData
 381              	.LVL37:
 149:Core/Lib/st7735/st7735.c **** 
 150:Core/Lib/st7735/st7735.c ****     // write to RAM
 151:Core/Lib/st7735/st7735.c ****     ST7735_WriteCommand(ST7735_RAMWR);
 382              		.loc 1 151 5 view .LVU80
 383 004e 2C20     		movs	r0, #44
 384 0050 FFF7FEFF 		bl	ST7735_WriteCommand
 385              	.LVL38:
 152:Core/Lib/st7735/st7735.c **** }
 386              		.loc 1 152 1 is_stmt 0 view .LVU81
 387 0054 03B0     		add	sp, sp, #12
 388              		.cfi_def_cfa_offset 20
 389              		@ sp needed
 390 0056 F0BD     		pop	{r4, r5, r6, r7, pc}
 391              		.cfi_endproc
 392              	.LFE71:
 394              		.section	.text.ST7735_WriteChar,"ax",%progbits
 395              		.align	1
 396              		.syntax unified
 397              		.thumb
 398              		.thumb_func
 399              		.fpu softvfp
 401              	ST7735_WriteChar:
 402              	.LVL39:
 403              	.LFB74:
 153:Core/Lib/st7735/st7735.c **** 
 154:Core/Lib/st7735/st7735.c **** void ST7735_Init() {
 155:Core/Lib/st7735/st7735.c ****     ST7735_Select();
 156:Core/Lib/st7735/st7735.c ****     ST7735_Reset();
 157:Core/Lib/st7735/st7735.c ****     ST7735_ExecuteCommandList(init_cmds1);
ARM GAS  /tmp/ccwMV9eU.s 			page 11


 158:Core/Lib/st7735/st7735.c ****     ST7735_ExecuteCommandList(init_cmds2);
 159:Core/Lib/st7735/st7735.c ****     ST7735_ExecuteCommandList(init_cmds3);
 160:Core/Lib/st7735/st7735.c ****     ST7735_Unselect();
 161:Core/Lib/st7735/st7735.c **** }
 162:Core/Lib/st7735/st7735.c **** 
 163:Core/Lib/st7735/st7735.c **** void ST7735_DrawPixel(uint16_t x, uint16_t y, uint16_t color) {
 164:Core/Lib/st7735/st7735.c ****     if((x >= ST7735_WIDTH) || (y >= ST7735_HEIGHT))
 165:Core/Lib/st7735/st7735.c ****         return;
 166:Core/Lib/st7735/st7735.c **** 
 167:Core/Lib/st7735/st7735.c ****     ST7735_Select();
 168:Core/Lib/st7735/st7735.c **** 
 169:Core/Lib/st7735/st7735.c ****     ST7735_SetAddressWindow(x, y, x+1, y+1);
 170:Core/Lib/st7735/st7735.c ****     uint8_t data[] = { color >> 8, color & 0xFF };
 171:Core/Lib/st7735/st7735.c ****     ST7735_WriteData(data, sizeof(data));
 172:Core/Lib/st7735/st7735.c **** 
 173:Core/Lib/st7735/st7735.c ****     ST7735_Unselect();
 174:Core/Lib/st7735/st7735.c **** }
 175:Core/Lib/st7735/st7735.c **** 
 176:Core/Lib/st7735/st7735.c **** static void ST7735_WriteChar(uint16_t x, uint16_t y, char ch, FontDef font, uint16_t color, uint16_
 404              		.loc 1 176 111 is_stmt 1 view -0
 405              		.cfi_startproc
 406              		@ args = 20, pretend = 8, frame = 8
 407              		@ frame_needed = 0, uses_anonymous_args = 0
 408              		.loc 1 176 111 is_stmt 0 view .LVU83
 409 0000 82B0     		sub	sp, sp, #8
 410              		.cfi_def_cfa_offset 8
 411 0002 2DE9F04F 		push	{r4, r5, r6, r7, r8, r9, r10, fp, lr}
 412              		.cfi_def_cfa_offset 44
 413              		.cfi_offset 4, -44
 414              		.cfi_offset 5, -40
 415              		.cfi_offset 6, -36
 416              		.cfi_offset 7, -32
 417              		.cfi_offset 8, -28
 418              		.cfi_offset 9, -24
 419              		.cfi_offset 10, -20
 420              		.cfi_offset 11, -16
 421              		.cfi_offset 14, -12
 422 0006 83B0     		sub	sp, sp, #12
 423              		.cfi_def_cfa_offset 56
 424 0008 9346     		mov	fp, r2
 425 000a 0D93     		str	r3, [sp, #52]
 426 000c BDF83C80 		ldrh	r8, [sp, #60]
 427 0010 BDF84070 		ldrh	r7, [sp, #64]
 177:Core/Lib/st7735/st7735.c ****     uint32_t i, b, j;
 428              		.loc 1 177 5 is_stmt 1 view .LVU84
 178:Core/Lib/st7735/st7735.c **** 
 179:Core/Lib/st7735/st7735.c ****     ST7735_SetAddressWindow(x, y, x+font.width-1, y+font.height-1);
 429              		.loc 1 179 5 view .LVU85
 430 0014 C0B2     		uxtb	r0, r0
 431              	.LVL40:
 432              		.loc 1 179 5 is_stmt 0 view .LVU86
 433 0016 C9B2     		uxtb	r1, r1
 434              	.LVL41:
 435              		.loc 1 179 41 view .LVU87
 436 0018 9DF83450 		ldrb	r5, [sp, #52]	@ zero_extendqisi2
 437              		.loc 1 179 36 view .LVU88
 438 001c 4219     		adds	r2, r0, r5
ARM GAS  /tmp/ccwMV9eU.s 			page 12


 439              	.LVL42:
 440              		.loc 1 179 36 view .LVU89
 441 001e D2B2     		uxtb	r2, r2
 442              		.loc 1 179 57 view .LVU90
 443 0020 9DF835A0 		ldrb	r10, [sp, #53]	@ zero_extendqisi2
 444              		.loc 1 179 52 view .LVU91
 445 0024 01EB0A03 		add	r3, r1, r10
 446 0028 DBB2     		uxtb	r3, r3
 447              		.loc 1 179 5 view .LVU92
 448 002a 013B     		subs	r3, r3, #1
 449 002c 013A     		subs	r2, r2, #1
 450 002e DBB2     		uxtb	r3, r3
 451 0030 D2B2     		uxtb	r2, r2
 452 0032 FFF7FEFF 		bl	ST7735_SetAddressWindow
 453              	.LVL43:
 180:Core/Lib/st7735/st7735.c **** 
 181:Core/Lib/st7735/st7735.c ****     for(i = 0; i < font.height; i++) {
 454              		.loc 1 181 5 is_stmt 1 view .LVU93
 455              		.loc 1 181 11 is_stmt 0 view .LVU94
 456 0036 4FF00009 		mov	r9, #0
 457              		.loc 1 181 5 view .LVU95
 458 003a 1DE0     		b	.L30
 459              	.LVL44:
 460              	.L32:
 461              	.LBB4:
 182:Core/Lib/st7735/st7735.c ****         b = font.data[(ch - 32) * font.height + i];
 183:Core/Lib/st7735/st7735.c ****         for(j = 0; j < font.width; j++) {
 184:Core/Lib/st7735/st7735.c ****             if((b << j) & 0x8000)  {
 185:Core/Lib/st7735/st7735.c ****                 uint8_t data[] = { color >> 8, color & 0xFF };
 186:Core/Lib/st7735/st7735.c ****                 ST7735_WriteData(data, sizeof(data));
 187:Core/Lib/st7735/st7735.c ****             } else {
 188:Core/Lib/st7735/st7735.c ****                 uint8_t data[] = { bgcolor >> 8, bgcolor & 0xFF };
 462              		.loc 1 188 17 is_stmt 1 view .LVU96
 463              		.loc 1 188 25 is_stmt 0 view .LVU97
 464 003c 3B0A     		lsrs	r3, r7, #8
 465 003e 8DF80430 		strb	r3, [sp, #4]
 466 0042 8DF80570 		strb	r7, [sp, #5]
 189:Core/Lib/st7735/st7735.c ****                 ST7735_WriteData(data, sizeof(data));
 467              		.loc 1 189 17 is_stmt 1 view .LVU98
 468 0046 0221     		movs	r1, #2
 469 0048 01A8     		add	r0, sp, #4
 470 004a FFF7FEFF 		bl	ST7735_WriteData
 471              	.LVL45:
 472              	.L33:
 473              		.loc 1 189 17 is_stmt 0 view .LVU99
 474              	.LBE4:
 183:Core/Lib/st7735/st7735.c ****             if((b << j) & 0x8000)  {
 475              		.loc 1 183 36 is_stmt 1 discriminator 2 view .LVU100
 183:Core/Lib/st7735/st7735.c ****             if((b << j) & 0x8000)  {
 476              		.loc 1 183 37 is_stmt 0 discriminator 2 view .LVU101
 477 004e 0134     		adds	r4, r4, #1
 478              	.LVL46:
 479              	.L31:
 183:Core/Lib/st7735/st7735.c ****             if((b << j) & 0x8000)  {
 480              		.loc 1 183 20 is_stmt 1 discriminator 1 view .LVU102
 183:Core/Lib/st7735/st7735.c ****             if((b << j) & 0x8000)  {
 481              		.loc 1 183 9 is_stmt 0 discriminator 1 view .LVU103
ARM GAS  /tmp/ccwMV9eU.s 			page 13


 482 0050 A542     		cmp	r5, r4
 483 0052 0FD9     		bls	.L37
 184:Core/Lib/st7735/st7735.c ****                 uint8_t data[] = { color >> 8, color & 0xFF };
 484              		.loc 1 184 13 is_stmt 1 view .LVU104
 184:Core/Lib/st7735/st7735.c ****                 uint8_t data[] = { color >> 8, color & 0xFF };
 485              		.loc 1 184 19 is_stmt 0 view .LVU105
 486 0054 06FA04F3 		lsl	r3, r6, r4
 184:Core/Lib/st7735/st7735.c ****                 uint8_t data[] = { color >> 8, color & 0xFF };
 487              		.loc 1 184 15 view .LVU106
 488 0058 13F4004F 		tst	r3, #32768
 489 005c EED0     		beq	.L32
 490              	.LBB5:
 185:Core/Lib/st7735/st7735.c ****                 ST7735_WriteData(data, sizeof(data));
 491              		.loc 1 185 17 is_stmt 1 view .LVU107
 185:Core/Lib/st7735/st7735.c ****                 ST7735_WriteData(data, sizeof(data));
 492              		.loc 1 185 25 is_stmt 0 view .LVU108
 493 005e 4FEA1823 		lsr	r3, r8, #8
 494 0062 8DF80430 		strb	r3, [sp, #4]
 495 0066 8DF80580 		strb	r8, [sp, #5]
 186:Core/Lib/st7735/st7735.c ****             } else {
 496              		.loc 1 186 17 is_stmt 1 view .LVU109
 497 006a 0221     		movs	r1, #2
 498 006c 01A8     		add	r0, sp, #4
 499 006e FFF7FEFF 		bl	ST7735_WriteData
 500              	.LVL47:
 501              	.LBE5:
 502 0072 ECE7     		b	.L33
 503              	.L37:
 181:Core/Lib/st7735/st7735.c ****         b = font.data[(ch - 32) * font.height + i];
 504              		.loc 1 181 33 discriminator 2 view .LVU110
 181:Core/Lib/st7735/st7735.c ****         b = font.data[(ch - 32) * font.height + i];
 505              		.loc 1 181 34 is_stmt 0 discriminator 2 view .LVU111
 506 0074 09F10109 		add	r9, r9, #1
 507              	.LVL48:
 508              	.L30:
 181:Core/Lib/st7735/st7735.c ****         b = font.data[(ch - 32) * font.height + i];
 509              		.loc 1 181 16 is_stmt 1 discriminator 1 view .LVU112
 181:Core/Lib/st7735/st7735.c ****         b = font.data[(ch - 32) * font.height + i];
 510              		.loc 1 181 5 is_stmt 0 discriminator 1 view .LVU113
 511 0078 CA45     		cmp	r10, r9
 512 007a 08D9     		bls	.L38
 182:Core/Lib/st7735/st7735.c ****         for(j = 0; j < font.width; j++) {
 513              		.loc 1 182 9 is_stmt 1 view .LVU114
 182:Core/Lib/st7735/st7735.c ****         for(j = 0; j < font.width; j++) {
 514              		.loc 1 182 27 is_stmt 0 view .LVU115
 515 007c ABF12003 		sub	r3, fp, #32
 182:Core/Lib/st7735/st7735.c ****         for(j = 0; j < font.width; j++) {
 516              		.loc 1 182 47 view .LVU116
 517 0080 0AFB0393 		mla	r3, r10, r3, r9
 182:Core/Lib/st7735/st7735.c ****         for(j = 0; j < font.width; j++) {
 518              		.loc 1 182 22 view .LVU117
 519 0084 0E9A     		ldr	r2, [sp, #56]
 520 0086 32F81360 		ldrh	r6, [r2, r3, lsl #1]
 521              	.LVL49:
 183:Core/Lib/st7735/st7735.c ****             if((b << j) & 0x8000)  {
 522              		.loc 1 183 9 is_stmt 1 view .LVU118
 183:Core/Lib/st7735/st7735.c ****             if((b << j) & 0x8000)  {
ARM GAS  /tmp/ccwMV9eU.s 			page 14


 523              		.loc 1 183 15 is_stmt 0 view .LVU119
 524 008a 0024     		movs	r4, #0
 183:Core/Lib/st7735/st7735.c ****             if((b << j) & 0x8000)  {
 525              		.loc 1 183 9 view .LVU120
 526 008c E0E7     		b	.L31
 527              	.LVL50:
 528              	.L38:
 190:Core/Lib/st7735/st7735.c ****             }
 191:Core/Lib/st7735/st7735.c ****         }
 192:Core/Lib/st7735/st7735.c ****     }
 193:Core/Lib/st7735/st7735.c **** }
 529              		.loc 1 193 1 view .LVU121
 530 008e 03B0     		add	sp, sp, #12
 531              		.cfi_def_cfa_offset 44
 532              		@ sp needed
 533 0090 BDE8F04F 		pop	{r4, r5, r6, r7, r8, r9, r10, fp, lr}
 534              		.cfi_restore 14
 535              		.cfi_restore 11
 536              		.cfi_restore 10
 537              		.cfi_restore 9
 538              		.cfi_restore 8
 539              		.cfi_restore 7
 540              		.cfi_restore 6
 541              		.cfi_restore 5
 542              		.cfi_restore 4
 543              		.cfi_def_cfa_offset 8
 544              	.LVL51:
 545              		.loc 1 193 1 view .LVU122
 546 0094 02B0     		add	sp, sp, #8
 547              		.cfi_def_cfa_offset 0
 548 0096 7047     		bx	lr
 549              		.cfi_endproc
 550              	.LFE74:
 552              		.section	.text.ST7735_Unselect,"ax",%progbits
 553              		.align	1
 554              		.global	ST7735_Unselect
 555              		.syntax unified
 556              		.thumb
 557              		.thumb_func
 558              		.fpu softvfp
 560              	ST7735_Unselect:
 561              	.LFB66:
  92:Core/Lib/st7735/st7735.c ****     HAL_GPIO_WritePin(ST7735_CS_GPIO_Port, ST7735_CS_Pin, GPIO_PIN_SET);
 562              		.loc 1 92 24 is_stmt 1 view -0
 563              		.cfi_startproc
 564              		@ args = 0, pretend = 0, frame = 0
 565              		@ frame_needed = 0, uses_anonymous_args = 0
 566 0000 08B5     		push	{r3, lr}
 567              		.cfi_def_cfa_offset 8
 568              		.cfi_offset 3, -8
 569              		.cfi_offset 14, -4
  93:Core/Lib/st7735/st7735.c **** }
 570              		.loc 1 93 5 view .LVU124
 571 0002 0122     		movs	r2, #1
 572 0004 4FF48071 		mov	r1, #256
 573 0008 0148     		ldr	r0, .L41
 574 000a FFF7FEFF 		bl	HAL_GPIO_WritePin
ARM GAS  /tmp/ccwMV9eU.s 			page 15


 575              	.LVL52:
  94:Core/Lib/st7735/st7735.c **** 
 576              		.loc 1 94 1 is_stmt 0 view .LVU125
 577 000e 08BD     		pop	{r3, pc}
 578              	.L42:
 579              		.align	2
 580              	.L41:
 581 0010 000C0140 		.word	1073810432
 582              		.cfi_endproc
 583              	.LFE66:
 585              		.section	.text.ST7735_Init,"ax",%progbits
 586              		.align	1
 587              		.global	ST7735_Init
 588              		.syntax unified
 589              		.thumb
 590              		.thumb_func
 591              		.fpu softvfp
 593              	ST7735_Init:
 594              	.LFB72:
 154:Core/Lib/st7735/st7735.c ****     ST7735_Select();
 595              		.loc 1 154 20 is_stmt 1 view -0
 596              		.cfi_startproc
 597              		@ args = 0, pretend = 0, frame = 0
 598              		@ frame_needed = 0, uses_anonymous_args = 0
 599 0000 08B5     		push	{r3, lr}
 600              		.cfi_def_cfa_offset 8
 601              		.cfi_offset 3, -8
 602              		.cfi_offset 14, -4
 155:Core/Lib/st7735/st7735.c ****     ST7735_Reset();
 603              		.loc 1 155 5 view .LVU127
 604 0002 FFF7FEFF 		bl	ST7735_Select
 605              	.LVL53:
 156:Core/Lib/st7735/st7735.c ****     ST7735_ExecuteCommandList(init_cmds1);
 606              		.loc 1 156 5 view .LVU128
 607 0006 FFF7FEFF 		bl	ST7735_Reset
 608              	.LVL54:
 157:Core/Lib/st7735/st7735.c ****     ST7735_ExecuteCommandList(init_cmds2);
 609              		.loc 1 157 5 view .LVU129
 610 000a 0648     		ldr	r0, .L45
 611 000c FFF7FEFF 		bl	ST7735_ExecuteCommandList
 612              	.LVL55:
 158:Core/Lib/st7735/st7735.c ****     ST7735_ExecuteCommandList(init_cmds3);
 613              		.loc 1 158 5 view .LVU130
 614 0010 0548     		ldr	r0, .L45+4
 615 0012 FFF7FEFF 		bl	ST7735_ExecuteCommandList
 616              	.LVL56:
 159:Core/Lib/st7735/st7735.c ****     ST7735_Unselect();
 617              		.loc 1 159 5 view .LVU131
 618 0016 0548     		ldr	r0, .L45+8
 619 0018 FFF7FEFF 		bl	ST7735_ExecuteCommandList
 620              	.LVL57:
 160:Core/Lib/st7735/st7735.c **** }
 621              		.loc 1 160 5 view .LVU132
 622 001c FFF7FEFF 		bl	ST7735_Unselect
 623              	.LVL58:
 161:Core/Lib/st7735/st7735.c **** 
 624              		.loc 1 161 1 is_stmt 0 view .LVU133
ARM GAS  /tmp/ccwMV9eU.s 			page 16


 625 0020 08BD     		pop	{r3, pc}
 626              	.L46:
 627 0022 00BF     		.align	2
 628              	.L45:
 629 0024 00000000 		.word	.LANCHOR0
 630 0028 00000000 		.word	.LANCHOR1
 631 002c 00000000 		.word	.LANCHOR2
 632              		.cfi_endproc
 633              	.LFE72:
 635              		.section	.text.ST7735_DrawPixel,"ax",%progbits
 636              		.align	1
 637              		.global	ST7735_DrawPixel
 638              		.syntax unified
 639              		.thumb
 640              		.thumb_func
 641              		.fpu softvfp
 643              	ST7735_DrawPixel:
 644              	.LVL59:
 645              	.LFB73:
 163:Core/Lib/st7735/st7735.c ****     if((x >= ST7735_WIDTH) || (y >= ST7735_HEIGHT))
 646              		.loc 1 163 63 is_stmt 1 view -0
 647              		.cfi_startproc
 648              		@ args = 0, pretend = 0, frame = 8
 649              		@ frame_needed = 0, uses_anonymous_args = 0
 164:Core/Lib/st7735/st7735.c ****         return;
 650              		.loc 1 164 5 view .LVU135
 164:Core/Lib/st7735/st7735.c ****         return;
 651              		.loc 1 164 7 is_stmt 0 view .LVU136
 652 0000 9F28     		cmp	r0, #159
 653 0002 1ED8     		bhi	.L52
 163:Core/Lib/st7735/st7735.c ****     if((x >= ST7735_WIDTH) || (y >= ST7735_HEIGHT))
 654              		.loc 1 163 63 discriminator 1 view .LVU137
 655 0004 70B5     		push	{r4, r5, r6, lr}
 656              		.cfi_def_cfa_offset 16
 657              		.cfi_offset 4, -16
 658              		.cfi_offset 5, -12
 659              		.cfi_offset 6, -8
 660              		.cfi_offset 14, -4
 661 0006 82B0     		sub	sp, sp, #8
 662              		.cfi_def_cfa_offset 24
 663 0008 0446     		mov	r4, r0
 664 000a 0D46     		mov	r5, r1
 665 000c 1646     		mov	r6, r2
 164:Core/Lib/st7735/st7735.c ****         return;
 666              		.loc 1 164 28 discriminator 1 view .LVU138
 667 000e 7F29     		cmp	r1, #127
 668 0010 01D9     		bls	.L55
 669              	.LVL60:
 670              	.L47:
 174:Core/Lib/st7735/st7735.c **** 
 671              		.loc 1 174 1 view .LVU139
 672 0012 02B0     		add	sp, sp, #8
 673              		.cfi_remember_state
 674              		.cfi_def_cfa_offset 16
 675              		@ sp needed
 676 0014 70BD     		pop	{r4, r5, r6, pc}
 677              	.LVL61:
ARM GAS  /tmp/ccwMV9eU.s 			page 17


 678              	.L55:
 679              		.cfi_restore_state
 167:Core/Lib/st7735/st7735.c **** 
 680              		.loc 1 167 5 is_stmt 1 view .LVU140
 681 0016 FFF7FEFF 		bl	ST7735_Select
 682              	.LVL62:
 169:Core/Lib/st7735/st7735.c ****     uint8_t data[] = { color >> 8, color & 0xFF };
 683              		.loc 1 169 5 view .LVU141
 684 001a E0B2     		uxtb	r0, r4
 685 001c E9B2     		uxtb	r1, r5
 686 001e 4B1C     		adds	r3, r1, #1
 687 0020 421C     		adds	r2, r0, #1
 688 0022 DBB2     		uxtb	r3, r3
 689 0024 D2B2     		uxtb	r2, r2
 690 0026 FFF7FEFF 		bl	ST7735_SetAddressWindow
 691              	.LVL63:
 170:Core/Lib/st7735/st7735.c ****     ST7735_WriteData(data, sizeof(data));
 692              		.loc 1 170 5 view .LVU142
 170:Core/Lib/st7735/st7735.c ****     ST7735_WriteData(data, sizeof(data));
 693              		.loc 1 170 13 is_stmt 0 view .LVU143
 694 002a 330A     		lsrs	r3, r6, #8
 695 002c 8DF80430 		strb	r3, [sp, #4]
 696 0030 8DF80560 		strb	r6, [sp, #5]
 171:Core/Lib/st7735/st7735.c **** 
 697              		.loc 1 171 5 is_stmt 1 view .LVU144
 698 0034 0221     		movs	r1, #2
 699 0036 01A8     		add	r0, sp, #4
 700 0038 FFF7FEFF 		bl	ST7735_WriteData
 701              	.LVL64:
 173:Core/Lib/st7735/st7735.c **** }
 702              		.loc 1 173 5 view .LVU145
 703 003c FFF7FEFF 		bl	ST7735_Unselect
 704              	.LVL65:
 705 0040 E7E7     		b	.L47
 706              	.LVL66:
 707              	.L52:
 708              		.cfi_def_cfa_offset 0
 709              		.cfi_restore 4
 710              		.cfi_restore 5
 711              		.cfi_restore 6
 712              		.cfi_restore 14
 173:Core/Lib/st7735/st7735.c **** }
 713              		.loc 1 173 5 is_stmt 0 view .LVU146
 714 0042 7047     		bx	lr
 715              		.cfi_endproc
 716              	.LFE73:
 718              		.section	.text.ST7735_WriteString,"ax",%progbits
 719              		.align	1
 720              		.global	ST7735_WriteString
 721              		.syntax unified
 722              		.thumb
 723              		.thumb_func
 724              		.fpu softvfp
 726              	ST7735_WriteString:
 727              	.LVL67:
 728              	.LFB75:
 194:Core/Lib/st7735/st7735.c **** 
ARM GAS  /tmp/ccwMV9eU.s 			page 18


 195:Core/Lib/st7735/st7735.c **** /*
 196:Core/Lib/st7735/st7735.c **** Simpler (and probably slower) implementation:
 197:Core/Lib/st7735/st7735.c **** 
 198:Core/Lib/st7735/st7735.c **** static void ST7735_WriteChar(uint16_t x, uint16_t y, char ch, FontDef font, uint16_t color) {
 199:Core/Lib/st7735/st7735.c ****     uint32_t i, b, j;
 200:Core/Lib/st7735/st7735.c **** 
 201:Core/Lib/st7735/st7735.c ****     for(i = 0; i < font.height; i++) {
 202:Core/Lib/st7735/st7735.c ****         b = font.data[(ch - 32) * font.height + i];
 203:Core/Lib/st7735/st7735.c ****         for(j = 0; j < font.width; j++) {
 204:Core/Lib/st7735/st7735.c ****             if((b << j) & 0x8000)  {
 205:Core/Lib/st7735/st7735.c ****                 ST7735_DrawPixel(x + j, y + i, color);
 206:Core/Lib/st7735/st7735.c ****             } 
 207:Core/Lib/st7735/st7735.c ****         }
 208:Core/Lib/st7735/st7735.c ****     }
 209:Core/Lib/st7735/st7735.c **** }
 210:Core/Lib/st7735/st7735.c **** */
 211:Core/Lib/st7735/st7735.c **** 
 212:Core/Lib/st7735/st7735.c **** void ST7735_WriteString(uint16_t x, uint16_t y, const char* str, FontDef font, uint16_t color, uint
 729              		.loc 1 212 114 is_stmt 1 view -0
 730              		.cfi_startproc
 731              		@ args = 20, pretend = 8, frame = 0
 732              		@ frame_needed = 0, uses_anonymous_args = 0
 733              		.loc 1 212 114 is_stmt 0 view .LVU148
 734 0000 82B0     		sub	sp, sp, #8
 735              		.cfi_def_cfa_offset 8
 736 0002 2DE9F043 		push	{r4, r5, r6, r7, r8, r9, lr}
 737              		.cfi_def_cfa_offset 36
 738              		.cfi_offset 4, -36
 739              		.cfi_offset 5, -32
 740              		.cfi_offset 6, -28
 741              		.cfi_offset 7, -24
 742              		.cfi_offset 8, -20
 743              		.cfi_offset 9, -16
 744              		.cfi_offset 14, -12
 745 0006 85B0     		sub	sp, sp, #20
 746              		.cfi_def_cfa_offset 56
 747 0008 0646     		mov	r6, r0
 748 000a 0D46     		mov	r5, r1
 749 000c 1746     		mov	r7, r2
 750 000e 0D93     		str	r3, [sp, #52]
 751 0010 BDF83C90 		ldrh	r9, [sp, #60]
 752 0014 BDF84080 		ldrh	r8, [sp, #64]
 213:Core/Lib/st7735/st7735.c ****     ST7735_Select();
 753              		.loc 1 213 5 is_stmt 1 view .LVU149
 754 0018 FFF7FEFF 		bl	ST7735_Select
 755              	.LVL68:
 214:Core/Lib/st7735/st7735.c **** 
 215:Core/Lib/st7735/st7735.c ****     while(*str) {
 756              		.loc 1 215 5 view .LVU150
 757              		.loc 1 215 10 is_stmt 0 view .LVU151
 758 001c 10E0     		b	.L57
 759              	.LVL69:
 760              	.L64:
 216:Core/Lib/st7735/st7735.c ****         if(x + font.width >= ST7735_WIDTH) {
 217:Core/Lib/st7735/st7735.c ****             x = 0;
 218:Core/Lib/st7735/st7735.c ****             y += font.height;
 219:Core/Lib/st7735/st7735.c ****             if(y + font.height >= ST7735_HEIGHT) {
ARM GAS  /tmp/ccwMV9eU.s 			page 19


 220:Core/Lib/st7735/st7735.c ****                 break;
 221:Core/Lib/st7735/st7735.c ****             }
 222:Core/Lib/st7735/st7735.c **** 
 223:Core/Lib/st7735/st7735.c ****             if(*str == ' ') {
 224:Core/Lib/st7735/st7735.c ****                 // skip spaces in the beginning of the new line
 225:Core/Lib/st7735/st7735.c ****                 str++;
 761              		.loc 1 225 17 is_stmt 1 view .LVU152
 762              		.loc 1 225 20 is_stmt 0 view .LVU153
 763 001e 0137     		adds	r7, r7, #1
 764              	.LVL70:
 226:Core/Lib/st7735/st7735.c ****                 continue;
 765              		.loc 1 226 17 is_stmt 1 view .LVU154
 217:Core/Lib/st7735/st7735.c ****             y += font.height;
 766              		.loc 1 217 15 is_stmt 0 view .LVU155
 767 0020 0026     		movs	r6, #0
 768              		.loc 1 226 17 view .LVU156
 769 0022 0DE0     		b	.L57
 770              	.LVL71:
 771              	.L58:
 227:Core/Lib/st7735/st7735.c ****             }
 228:Core/Lib/st7735/st7735.c ****         }
 229:Core/Lib/st7735/st7735.c **** 
 230:Core/Lib/st7735/st7735.c ****         ST7735_WriteChar(x, y, *str, font, color, bgcolor);
 772              		.loc 1 230 9 is_stmt 1 view .LVU157
 773 0024 CDF80880 		str	r8, [sp, #8]
 774 0028 CDF80490 		str	r9, [sp, #4]
 775 002c 0E9B     		ldr	r3, [sp, #56]
 776 002e 0093     		str	r3, [sp]
 777 0030 0D9B     		ldr	r3, [sp, #52]
 778 0032 2946     		mov	r1, r5
 779 0034 3046     		mov	r0, r6
 780 0036 FFF7FEFF 		bl	ST7735_WriteChar
 781              	.LVL72:
 231:Core/Lib/st7735/st7735.c ****         x += font.width;
 782              		.loc 1 231 9 view .LVU158
 783              		.loc 1 231 11 is_stmt 0 view .LVU159
 784 003a 3444     		add	r4, r4, r6
 785 003c A6B2     		uxth	r6, r4
 786              	.LVL73:
 232:Core/Lib/st7735/st7735.c ****         str++;
 787              		.loc 1 232 9 is_stmt 1 view .LVU160
 788              		.loc 1 232 12 is_stmt 0 view .LVU161
 789 003e 0137     		adds	r7, r7, #1
 790              	.LVL74:
 791              	.L57:
 215:Core/Lib/st7735/st7735.c ****         if(x + font.width >= ST7735_WIDTH) {
 792              		.loc 1 215 10 is_stmt 1 view .LVU162
 215:Core/Lib/st7735/st7735.c ****         if(x + font.width >= ST7735_WIDTH) {
 793              		.loc 1 215 11 is_stmt 0 view .LVU163
 794 0040 3A78     		ldrb	r2, [r7]	@ zero_extendqisi2
 215:Core/Lib/st7735/st7735.c ****         if(x + font.width >= ST7735_WIDTH) {
 795              		.loc 1 215 10 view .LVU164
 796 0042 7AB1     		cbz	r2, .L59
 216:Core/Lib/st7735/st7735.c ****             x = 0;
 797              		.loc 1 216 9 is_stmt 1 view .LVU165
 216:Core/Lib/st7735/st7735.c ****             x = 0;
 798              		.loc 1 216 20 is_stmt 0 view .LVU166
ARM GAS  /tmp/ccwMV9eU.s 			page 20


 799 0044 9DF83440 		ldrb	r4, [sp, #52]	@ zero_extendqisi2
 216:Core/Lib/st7735/st7735.c ****             x = 0;
 800              		.loc 1 216 14 view .LVU167
 801 0048 3319     		adds	r3, r6, r4
 216:Core/Lib/st7735/st7735.c ****             x = 0;
 802              		.loc 1 216 11 view .LVU168
 803 004a 9F2B     		cmp	r3, #159
 804 004c EADD     		ble	.L58
 217:Core/Lib/st7735/st7735.c ****             y += font.height;
 805              		.loc 1 217 13 is_stmt 1 view .LVU169
 806              	.LVL75:
 218:Core/Lib/st7735/st7735.c ****             if(y + font.height >= ST7735_HEIGHT) {
 807              		.loc 1 218 13 view .LVU170
 218:Core/Lib/st7735/st7735.c ****             if(y + font.height >= ST7735_HEIGHT) {
 808              		.loc 1 218 22 is_stmt 0 view .LVU171
 809 004e 9DF83530 		ldrb	r3, [sp, #53]	@ zero_extendqisi2
 218:Core/Lib/st7735/st7735.c ****             if(y + font.height >= ST7735_HEIGHT) {
 810              		.loc 1 218 15 view .LVU172
 811 0052 1D44     		add	r5, r5, r3
 812              	.LVL76:
 218:Core/Lib/st7735/st7735.c ****             if(y + font.height >= ST7735_HEIGHT) {
 813              		.loc 1 218 15 view .LVU173
 814 0054 ADB2     		uxth	r5, r5
 815              	.LVL77:
 219:Core/Lib/st7735/st7735.c ****                 break;
 816              		.loc 1 219 13 is_stmt 1 view .LVU174
 219:Core/Lib/st7735/st7735.c ****                 break;
 817              		.loc 1 219 18 is_stmt 0 view .LVU175
 818 0056 2B44     		add	r3, r3, r5
 219:Core/Lib/st7735/st7735.c ****                 break;
 819              		.loc 1 219 15 view .LVU176
 820 0058 7F2B     		cmp	r3, #127
 821 005a 03DC     		bgt	.L59
 223:Core/Lib/st7735/st7735.c ****                 // skip spaces in the beginning of the new line
 822              		.loc 1 223 13 is_stmt 1 view .LVU177
 223:Core/Lib/st7735/st7735.c ****                 // skip spaces in the beginning of the new line
 823              		.loc 1 223 15 is_stmt 0 view .LVU178
 824 005c 202A     		cmp	r2, #32
 825 005e DED0     		beq	.L64
 217:Core/Lib/st7735/st7735.c ****             y += font.height;
 826              		.loc 1 217 15 view .LVU179
 827 0060 0026     		movs	r6, #0
 828 0062 DFE7     		b	.L58
 829              	.LVL78:
 830              	.L59:
 233:Core/Lib/st7735/st7735.c ****     }
 234:Core/Lib/st7735/st7735.c **** 
 235:Core/Lib/st7735/st7735.c ****     ST7735_Unselect();
 831              		.loc 1 235 5 is_stmt 1 view .LVU180
 832 0064 FFF7FEFF 		bl	ST7735_Unselect
 833              	.LVL79:
 236:Core/Lib/st7735/st7735.c **** }
 834              		.loc 1 236 1 is_stmt 0 view .LVU181
 835 0068 05B0     		add	sp, sp, #20
 836              		.cfi_def_cfa_offset 36
 837              		@ sp needed
 838 006a BDE8F043 		pop	{r4, r5, r6, r7, r8, r9, lr}
ARM GAS  /tmp/ccwMV9eU.s 			page 21


 839              		.cfi_restore 14
 840              		.cfi_restore 9
 841              		.cfi_restore 8
 842              		.cfi_restore 7
 843              		.cfi_restore 6
 844              		.cfi_restore 5
 845              		.cfi_restore 4
 846              		.cfi_def_cfa_offset 8
 847              	.LVL80:
 848              		.loc 1 236 1 view .LVU182
 849 006e 02B0     		add	sp, sp, #8
 850              		.cfi_def_cfa_offset 0
 851 0070 7047     		bx	lr
 852              		.cfi_endproc
 853              	.LFE75:
 855              		.section	.text.ST7735_WriteJustifyString,"ax",%progbits
 856              		.align	1
 857              		.global	ST7735_WriteJustifyString
 858              		.syntax unified
 859              		.thumb
 860              		.thumb_func
 861              		.fpu softvfp
 863              	ST7735_WriteJustifyString:
 864              	.LVL81:
 865              	.LFB76:
 237:Core/Lib/st7735/st7735.c **** 
 238:Core/Lib/st7735/st7735.c **** void ST7735_WriteJustifyString(uint16_t row, const char* str, FontDef font, uint16_t color, uint16_
 239:Core/Lib/st7735/st7735.c ****                                JustifyDef justify){
 866              		.loc 1 239 51 is_stmt 1 view -0
 867              		.cfi_startproc
 868              		@ args = 12, pretend = 0, frame = 8
 869              		@ frame_needed = 0, uses_anonymous_args = 0
 870              		.loc 1 239 51 is_stmt 0 view .LVU184
 871 0000 2DE9F043 		push	{r4, r5, r6, r7, r8, r9, lr}
 872              		.cfi_def_cfa_offset 28
 873              		.cfi_offset 4, -28
 874              		.cfi_offset 5, -24
 875              		.cfi_offset 6, -20
 876              		.cfi_offset 7, -16
 877              		.cfi_offset 8, -12
 878              		.cfi_offset 9, -8
 879              		.cfi_offset 14, -4
 880 0004 87B0     		sub	sp, sp, #28
 881              		.cfi_def_cfa_offset 56
 882 0006 0546     		mov	r5, r0
 883 0008 0C46     		mov	r4, r1
 884 000a 06A9     		add	r1, sp, #24
 885              	.LVL82:
 886              		.loc 1 239 51 view .LVU185
 887 000c 01E90C00 		stmdb	r1, {r2, r3}
 888 0010 BDF83870 		ldrh	r7, [sp, #56]
 889 0014 BDF83C80 		ldrh	r8, [sp, #60]
 890 0018 9DF84030 		ldrb	r3, [sp, #64]	@ zero_extendqisi2
 240:Core/Lib/st7735/st7735.c ****     uint16_t fontSize = (uint16_t)font.width; 
 891              		.loc 1 240 5 is_stmt 1 view .LVU186
 892              		.loc 1 240 39 is_stmt 0 view .LVU187
 893 001c 9DF81060 		ldrb	r6, [sp, #16]	@ zero_extendqisi2
ARM GAS  /tmp/ccwMV9eU.s 			page 22


 894              	.LVL83:
 241:Core/Lib/st7735/st7735.c ****     uint16_t start_col;
 895              		.loc 1 241 5 is_stmt 1 view .LVU188
 242:Core/Lib/st7735/st7735.c **** 
 243:Core/Lib/st7735/st7735.c **** 
 244:Core/Lib/st7735/st7735.c ****     switch(justify){
 896              		.loc 1 244 5 view .LVU189
 897 0020 012B     		cmp	r3, #1
 898 0022 11D0     		beq	.L66
 899 0024 022B     		cmp	r3, #2
 900 0026 25D0     		beq	.L67
 901 0028 13B1     		cbz	r3, .L70
 902              	.LVL84:
 903              	.L65:
 245:Core/Lib/st7735/st7735.c ****       case JUST_LEFT:
 246:Core/Lib/st7735/st7735.c ****         ST7735_WriteString(0, row, str, font, color, bgcolor);
 247:Core/Lib/st7735/st7735.c ****         break;
 248:Core/Lib/st7735/st7735.c ****       case JUST_RIGHT:
 249:Core/Lib/st7735/st7735.c ****         start_col =  ST7735_WIDTH - (strlen(str)*fontSize);
 250:Core/Lib/st7735/st7735.c **** 
 251:Core/Lib/st7735/st7735.c ****         ST7735_WriteString(start_col, row, str, font, color, bgcolor);
 252:Core/Lib/st7735/st7735.c ****         break;
 253:Core/Lib/st7735/st7735.c ****       case JUST_CENTER:
 254:Core/Lib/st7735/st7735.c ****         start_col = (ST7735_WIDTH - (strlen(str)*fontSize))>>1;
 255:Core/Lib/st7735/st7735.c **** 
 256:Core/Lib/st7735/st7735.c ****         ST7735_WriteString(start_col, row, str, font, color, bgcolor);
 257:Core/Lib/st7735/st7735.c ****         break;
 258:Core/Lib/st7735/st7735.c ****     }
 259:Core/Lib/st7735/st7735.c **** }
 904              		.loc 1 259 1 is_stmt 0 view .LVU190
 905 002a 07B0     		add	sp, sp, #28
 906              		.cfi_remember_state
 907              		.cfi_def_cfa_offset 28
 908              		@ sp needed
 909 002c BDE8F083 		pop	{r4, r5, r6, r7, r8, r9, pc}
 910              	.LVL85:
 911              	.L70:
 912              		.cfi_restore_state
 246:Core/Lib/st7735/st7735.c ****         break;
 913              		.loc 1 246 9 is_stmt 1 view .LVU191
 914 0030 CDF80880 		str	r8, [sp, #8]
 915 0034 0197     		str	r7, [sp, #4]
 916 0036 059B     		ldr	r3, [sp, #20]
 917 0038 0093     		str	r3, [sp]
 918 003a 1346     		mov	r3, r2
 919 003c 2246     		mov	r2, r4
 920 003e 0146     		mov	r1, r0
 921 0040 0020     		movs	r0, #0
 922              	.LVL86:
 246:Core/Lib/st7735/st7735.c ****         break;
 923              		.loc 1 246 9 is_stmt 0 view .LVU192
 924 0042 FFF7FEFF 		bl	ST7735_WriteString
 925              	.LVL87:
 247:Core/Lib/st7735/st7735.c ****       case JUST_RIGHT:
 926              		.loc 1 247 9 is_stmt 1 view .LVU193
 927 0046 F0E7     		b	.L65
 928              	.LVL88:
ARM GAS  /tmp/ccwMV9eU.s 			page 23


 929              	.L66:
 247:Core/Lib/st7735/st7735.c ****       case JUST_RIGHT:
 930              		.loc 1 247 9 is_stmt 0 view .LVU194
 931 0048 1FFA86F9 		uxth	r9, r6
 249:Core/Lib/st7735/st7735.c **** 
 932              		.loc 1 249 9 is_stmt 1 view .LVU195
 249:Core/Lib/st7735/st7735.c **** 
 933              		.loc 1 249 38 is_stmt 0 view .LVU196
 934 004c 2046     		mov	r0, r4
 935              	.LVL89:
 249:Core/Lib/st7735/st7735.c **** 
 936              		.loc 1 249 38 view .LVU197
 937 004e FFF7FEFF 		bl	strlen
 938              	.LVL90:
 249:Core/Lib/st7735/st7735.c **** 
 939              		.loc 1 249 35 view .LVU198
 940 0052 00FB09F0 		mul	r0, r0, r9
 941 0056 80B2     		uxth	r0, r0
 249:Core/Lib/st7735/st7735.c **** 
 942              		.loc 1 249 19 view .LVU199
 943 0058 C0F1A000 		rsb	r0, r0, #160
 944              	.LVL91:
 251:Core/Lib/st7735/st7735.c ****         break;
 945              		.loc 1 251 9 is_stmt 1 view .LVU200
 946 005c CDF80880 		str	r8, [sp, #8]
 947 0060 0197     		str	r7, [sp, #4]
 948 0062 059B     		ldr	r3, [sp, #20]
 949 0064 0093     		str	r3, [sp]
 950 0066 049B     		ldr	r3, [sp, #16]
 951 0068 2246     		mov	r2, r4
 952 006a 2946     		mov	r1, r5
 953 006c 80B2     		uxth	r0, r0
 251:Core/Lib/st7735/st7735.c ****         break;
 954              		.loc 1 251 9 is_stmt 0 view .LVU201
 955 006e FFF7FEFF 		bl	ST7735_WriteString
 956              	.LVL92:
 252:Core/Lib/st7735/st7735.c ****       case JUST_CENTER:
 957              		.loc 1 252 9 is_stmt 1 view .LVU202
 958 0072 DAE7     		b	.L65
 959              	.LVL93:
 960              	.L67:
 254:Core/Lib/st7735/st7735.c **** 
 961              		.loc 1 254 9 view .LVU203
 254:Core/Lib/st7735/st7735.c **** 
 962              		.loc 1 254 38 is_stmt 0 view .LVU204
 963 0074 2046     		mov	r0, r4
 964              	.LVL94:
 254:Core/Lib/st7735/st7735.c **** 
 965              		.loc 1 254 38 view .LVU205
 966 0076 FFF7FEFF 		bl	strlen
 967              	.LVL95:
 254:Core/Lib/st7735/st7735.c **** 
 968              		.loc 1 254 49 view .LVU206
 969 007a 06FB00F0 		mul	r0, r6, r0
 254:Core/Lib/st7735/st7735.c **** 
 970              		.loc 1 254 35 view .LVU207
 971 007e C0F1A000 		rsb	r0, r0, #160
ARM GAS  /tmp/ccwMV9eU.s 			page 24


 972              	.LVL96:
 256:Core/Lib/st7735/st7735.c ****         break;
 973              		.loc 1 256 9 is_stmt 1 view .LVU208
 974 0082 CDF80880 		str	r8, [sp, #8]
 975 0086 0197     		str	r7, [sp, #4]
 976 0088 059B     		ldr	r3, [sp, #20]
 977 008a 0093     		str	r3, [sp]
 978 008c 049B     		ldr	r3, [sp, #16]
 979 008e 2246     		mov	r2, r4
 980 0090 2946     		mov	r1, r5
 981 0092 C0F34F00 		ubfx	r0, r0, #1, #16
 982              	.LVL97:
 256:Core/Lib/st7735/st7735.c ****         break;
 983              		.loc 1 256 9 is_stmt 0 view .LVU209
 984 0096 FFF7FEFF 		bl	ST7735_WriteString
 985              	.LVL98:
 257:Core/Lib/st7735/st7735.c ****     }
 986              		.loc 1 257 9 is_stmt 1 view .LVU210
 987              		.loc 1 259 1 is_stmt 0 view .LVU211
 988 009a C6E7     		b	.L65
 989              		.cfi_endproc
 990              	.LFE76:
 992              		.section	.text.ST7735_FillRectangle,"ax",%progbits
 993              		.align	1
 994              		.global	ST7735_FillRectangle
 995              		.syntax unified
 996              		.thumb
 997              		.thumb_func
 998              		.fpu softvfp
 1000              	ST7735_FillRectangle:
 1001              	.LVL99:
 1002              	.LFB77:
 260:Core/Lib/st7735/st7735.c **** 
 261:Core/Lib/st7735/st7735.c **** 
 262:Core/Lib/st7735/st7735.c **** void ST7735_FillRectangle(uint16_t x, uint16_t y, uint16_t w, uint16_t h, uint16_t color) {
 1003              		.loc 1 262 91 is_stmt 1 view -0
 1004              		.cfi_startproc
 1005              		@ args = 4, pretend = 0, frame = 8
 1006              		@ frame_needed = 0, uses_anonymous_args = 0
 1007              		.loc 1 262 91 is_stmt 0 view .LVU213
 1008 0000 2DE9F041 		push	{r4, r5, r6, r7, r8, lr}
 1009              		.cfi_def_cfa_offset 24
 1010              		.cfi_offset 4, -24
 1011              		.cfi_offset 5, -20
 1012              		.cfi_offset 6, -16
 1013              		.cfi_offset 7, -12
 1014              		.cfi_offset 8, -8
 1015              		.cfi_offset 14, -4
 1016 0004 82B0     		sub	sp, sp, #8
 1017              		.cfi_def_cfa_offset 32
 1018 0006 BDF82070 		ldrh	r7, [sp, #32]
 263:Core/Lib/st7735/st7735.c ****     // clipping
 264:Core/Lib/st7735/st7735.c ****     if((x >= ST7735_WIDTH) || (y >= ST7735_HEIGHT)) return;
 1019              		.loc 1 264 5 is_stmt 1 view .LVU214
 1020              		.loc 1 264 7 is_stmt 0 view .LVU215
 1021 000a 9F28     		cmp	r0, #159
 1022 000c 3CD8     		bhi	.L71
ARM GAS  /tmp/ccwMV9eU.s 			page 25


 1023 000e 8046     		mov	r8, r0
 1024 0010 0C46     		mov	r4, r1
 1025 0012 1646     		mov	r6, r2
 1026 0014 1D46     		mov	r5, r3
 1027              		.loc 1 264 28 discriminator 2 view .LVU216
 1028 0016 7F29     		cmp	r1, #127
 1029 0018 36D8     		bhi	.L71
 265:Core/Lib/st7735/st7735.c ****     if((x + w - 1) >= ST7735_WIDTH) w = ST7735_WIDTH - x;
 1030              		.loc 1 265 5 is_stmt 1 view .LVU217
 1031              		.loc 1 265 11 is_stmt 0 view .LVU218
 1032 001a 8318     		adds	r3, r0, r2
 1033              	.LVL100:
 1034              		.loc 1 265 7 view .LVU219
 1035 001c A02B     		cmp	r3, #160
 1036 001e 02DD     		ble	.L75
 1037              		.loc 1 265 37 is_stmt 1 discriminator 1 view .LVU220
 1038              		.loc 1 265 39 is_stmt 0 discriminator 1 view .LVU221
 1039 0020 C0F1A006 		rsb	r6, r0, #160
 1040 0024 B6B2     		uxth	r6, r6
 1041              	.LVL101:
 1042              	.L75:
 266:Core/Lib/st7735/st7735.c ****     if((y + h - 1) >= ST7735_HEIGHT) h = ST7735_HEIGHT - y;
 1043              		.loc 1 266 5 is_stmt 1 view .LVU222
 1044              		.loc 1 266 11 is_stmt 0 view .LVU223
 1045 0026 6319     		adds	r3, r4, r5
 1046              		.loc 1 266 7 view .LVU224
 1047 0028 802B     		cmp	r3, #128
 1048 002a 02DD     		ble	.L76
 1049              		.loc 1 266 38 is_stmt 1 discriminator 1 view .LVU225
 1050              		.loc 1 266 40 is_stmt 0 discriminator 1 view .LVU226
 1051 002c C4F18005 		rsb	r5, r4, #128
 1052 0030 ADB2     		uxth	r5, r5
 1053              	.LVL102:
 1054              	.L76:
 267:Core/Lib/st7735/st7735.c **** 
 268:Core/Lib/st7735/st7735.c ****     ST7735_Select();
 1055              		.loc 1 268 5 is_stmt 1 view .LVU227
 1056 0032 FFF7FEFF 		bl	ST7735_Select
 1057              	.LVL103:
 269:Core/Lib/st7735/st7735.c ****     ST7735_SetAddressWindow(x, y, x+w-1, y+h-1);
 1058              		.loc 1 269 5 view .LVU228
 1059 0036 5FFA88F0 		uxtb	r0, r8
 1060 003a E1B2     		uxtb	r1, r4
 1061              		.loc 1 269 36 is_stmt 0 view .LVU229
 1062 003c 8219     		adds	r2, r0, r6
 1063 003e D2B2     		uxtb	r2, r2
 1064              		.loc 1 269 43 view .LVU230
 1065 0040 4B19     		adds	r3, r1, r5
 1066 0042 DBB2     		uxtb	r3, r3
 1067              		.loc 1 269 5 view .LVU231
 1068 0044 013B     		subs	r3, r3, #1
 1069 0046 013A     		subs	r2, r2, #1
 1070 0048 DBB2     		uxtb	r3, r3
 1071 004a D2B2     		uxtb	r2, r2
 1072 004c FFF7FEFF 		bl	ST7735_SetAddressWindow
 1073              	.LVL104:
 270:Core/Lib/st7735/st7735.c **** 
ARM GAS  /tmp/ccwMV9eU.s 			page 26


 271:Core/Lib/st7735/st7735.c ****     uint8_t data[] = { color >> 8, color & 0xFF };
 1074              		.loc 1 271 5 is_stmt 1 view .LVU232
 1075              		.loc 1 271 13 is_stmt 0 view .LVU233
 1076 0050 3B0A     		lsrs	r3, r7, #8
 1077 0052 8DF80430 		strb	r3, [sp, #4]
 1078 0056 8DF80570 		strb	r7, [sp, #5]
 272:Core/Lib/st7735/st7735.c ****     HAL_GPIO_WritePin(ST7735_DC_GPIO_Port, ST7735_DC_Pin, GPIO_PIN_SET);
 1079              		.loc 1 272 5 is_stmt 1 view .LVU234
 1080 005a 0122     		movs	r2, #1
 1081 005c 8021     		movs	r1, #128
 1082 005e 0C48     		ldr	r0, .L83
 1083 0060 FFF7FEFF 		bl	HAL_GPIO_WritePin
 1084              	.LVL105:
 273:Core/Lib/st7735/st7735.c ****     for(y = h; y > 0; y--) {
 1085              		.loc 1 273 5 view .LVU235
 1086              		.loc 1 273 5 is_stmt 0 view .LVU236
 1087 0064 0BE0     		b	.L77
 1088              	.LVL106:
 1089              	.L78:
 274:Core/Lib/st7735/st7735.c ****         for(x = w; x > 0; x--) {
 275:Core/Lib/st7735/st7735.c ****             HAL_SPI_Transmit(&ST7735_SPI_PORT, data, sizeof(data), 10);
 1090              		.loc 1 275 13 is_stmt 1 discriminator 3 view .LVU237
 1091 0066 0A23     		movs	r3, #10
 1092 0068 0222     		movs	r2, #2
 1093 006a 01A9     		add	r1, sp, #4
 1094 006c 0948     		ldr	r0, .L83+4
 1095 006e FFF7FEFF 		bl	HAL_SPI_Transmit
 1096              	.LVL107:
 274:Core/Lib/st7735/st7735.c ****         for(x = w; x > 0; x--) {
 1097              		.loc 1 274 27 discriminator 3 view .LVU238
 274:Core/Lib/st7735/st7735.c ****         for(x = w; x > 0; x--) {
 1098              		.loc 1 274 28 is_stmt 0 discriminator 3 view .LVU239
 1099 0072 013C     		subs	r4, r4, #1
 1100              	.LVL108:
 274:Core/Lib/st7735/st7735.c ****         for(x = w; x > 0; x--) {
 1101              		.loc 1 274 28 discriminator 3 view .LVU240
 1102 0074 A4B2     		uxth	r4, r4
 1103              	.LVL109:
 1104              	.L79:
 274:Core/Lib/st7735/st7735.c ****         for(x = w; x > 0; x--) {
 1105              		.loc 1 274 20 is_stmt 1 discriminator 1 view .LVU241
 274:Core/Lib/st7735/st7735.c ****         for(x = w; x > 0; x--) {
 1106              		.loc 1 274 9 is_stmt 0 discriminator 1 view .LVU242
 1107 0076 002C     		cmp	r4, #0
 1108 0078 F5D1     		bne	.L78
 273:Core/Lib/st7735/st7735.c ****     for(y = h; y > 0; y--) {
 1109              		.loc 1 273 23 is_stmt 1 discriminator 2 view .LVU243
 273:Core/Lib/st7735/st7735.c ****     for(y = h; y > 0; y--) {
 1110              		.loc 1 273 24 is_stmt 0 discriminator 2 view .LVU244
 1111 007a 013D     		subs	r5, r5, #1
 1112              	.LVL110:
 273:Core/Lib/st7735/st7735.c ****     for(y = h; y > 0; y--) {
 1113              		.loc 1 273 24 discriminator 2 view .LVU245
 1114 007c ADB2     		uxth	r5, r5
 1115              	.LVL111:
 1116              	.L77:
 273:Core/Lib/st7735/st7735.c ****     for(y = h; y > 0; y--) {
ARM GAS  /tmp/ccwMV9eU.s 			page 27


 1117              		.loc 1 273 16 is_stmt 1 discriminator 1 view .LVU246
 273:Core/Lib/st7735/st7735.c ****     for(y = h; y > 0; y--) {
 1118              		.loc 1 273 5 is_stmt 0 discriminator 1 view .LVU247
 1119 007e 0DB1     		cbz	r5, .L82
 274:Core/Lib/st7735/st7735.c ****         for(x = w; x > 0; x--) {
 1120              		.loc 1 274 15 view .LVU248
 1121 0080 3446     		mov	r4, r6
 1122 0082 F8E7     		b	.L79
 1123              	.L82:
 276:Core/Lib/st7735/st7735.c ****         }
 277:Core/Lib/st7735/st7735.c ****     }
 278:Core/Lib/st7735/st7735.c **** 
 279:Core/Lib/st7735/st7735.c ****     ST7735_Unselect();
 1124              		.loc 1 279 5 is_stmt 1 view .LVU249
 1125 0084 FFF7FEFF 		bl	ST7735_Unselect
 1126              	.LVL112:
 1127              	.L71:
 280:Core/Lib/st7735/st7735.c **** }
 1128              		.loc 1 280 1 is_stmt 0 view .LVU250
 1129 0088 02B0     		add	sp, sp, #8
 1130              		.cfi_def_cfa_offset 24
 1131              		@ sp needed
 1132 008a BDE8F081 		pop	{r4, r5, r6, r7, r8, pc}
 1133              	.LVL113:
 1134              	.L84:
 1135              		.loc 1 280 1 view .LVU251
 1136 008e 00BF     		.align	2
 1137              	.L83:
 1138 0090 000C0140 		.word	1073810432
 1139 0094 00000000 		.word	hspi2
 1140              		.cfi_endproc
 1141              	.LFE77:
 1143              		.section	.text.ST7735_FillRectangleFast,"ax",%progbits
 1144              		.align	1
 1145              		.global	ST7735_FillRectangleFast
 1146              		.syntax unified
 1147              		.thumb
 1148              		.thumb_func
 1149              		.fpu softvfp
 1151              	ST7735_FillRectangleFast:
 1152              	.LVL114:
 1153              	.LFB78:
 281:Core/Lib/st7735/st7735.c **** 
 282:Core/Lib/st7735/st7735.c **** void ST7735_FillRectangleFast(uint16_t x, uint16_t y, uint16_t w, uint16_t h, uint16_t color) {
 1154              		.loc 1 282 95 is_stmt 1 view -0
 1155              		.cfi_startproc
 1156              		@ args = 4, pretend = 0, frame = 8
 1157              		@ frame_needed = 0, uses_anonymous_args = 0
 1158              		.loc 1 282 95 is_stmt 0 view .LVU253
 1159 0000 2DE9F041 		push	{r4, r5, r6, r7, r8, lr}
 1160              		.cfi_def_cfa_offset 24
 1161              		.cfi_offset 4, -24
 1162              		.cfi_offset 5, -20
 1163              		.cfi_offset 6, -16
 1164              		.cfi_offset 7, -12
 1165              		.cfi_offset 8, -8
 1166              		.cfi_offset 14, -4
ARM GAS  /tmp/ccwMV9eU.s 			page 28


 1167 0004 82B0     		sub	sp, sp, #8
 1168              		.cfi_def_cfa_offset 32
 1169 0006 BDF82070 		ldrh	r7, [sp, #32]
 283:Core/Lib/st7735/st7735.c ****     // clipping
 284:Core/Lib/st7735/st7735.c ****     if((x >= ST7735_WIDTH) || (y >= ST7735_HEIGHT)) return;
 1170              		.loc 1 284 5 is_stmt 1 view .LVU254
 1171              		.loc 1 284 7 is_stmt 0 view .LVU255
 1172 000a 9F28     		cmp	r0, #159
 1173 000c 49D8     		bhi	.L85
 1174 000e 8046     		mov	r8, r0
 1175 0010 0E46     		mov	r6, r1
 1176 0012 1546     		mov	r5, r2
 1177 0014 1C46     		mov	r4, r3
 1178              		.loc 1 284 28 discriminator 2 view .LVU256
 1179 0016 7F29     		cmp	r1, #127
 1180 0018 43D8     		bhi	.L85
 285:Core/Lib/st7735/st7735.c ****     if((x + w - 1) >= ST7735_WIDTH) w = ST7735_WIDTH - x;
 1181              		.loc 1 285 5 is_stmt 1 view .LVU257
 1182              		.loc 1 285 11 is_stmt 0 view .LVU258
 1183 001a 8318     		adds	r3, r0, r2
 1184              	.LVL115:
 1185              		.loc 1 285 7 view .LVU259
 1186 001c A02B     		cmp	r3, #160
 1187 001e 02DD     		ble	.L89
 1188              		.loc 1 285 37 is_stmt 1 discriminator 1 view .LVU260
 1189              		.loc 1 285 39 is_stmt 0 discriminator 1 view .LVU261
 1190 0020 C0F1A005 		rsb	r5, r0, #160
 1191 0024 ADB2     		uxth	r5, r5
 1192              	.LVL116:
 1193              	.L89:
 286:Core/Lib/st7735/st7735.c ****     if((y + h - 1) >= ST7735_HEIGHT) h = ST7735_HEIGHT - y;
 1194              		.loc 1 286 5 is_stmt 1 view .LVU262
 1195              		.loc 1 286 11 is_stmt 0 view .LVU263
 1196 0026 3319     		adds	r3, r6, r4
 1197              		.loc 1 286 7 view .LVU264
 1198 0028 802B     		cmp	r3, #128
 1199 002a 02DD     		ble	.L90
 1200              		.loc 1 286 38 is_stmt 1 discriminator 1 view .LVU265
 1201              		.loc 1 286 40 is_stmt 0 discriminator 1 view .LVU266
 1202 002c C6F18004 		rsb	r4, r6, #128
 1203 0030 A4B2     		uxth	r4, r4
 1204              	.LVL117:
 1205              	.L90:
 287:Core/Lib/st7735/st7735.c **** 
 288:Core/Lib/st7735/st7735.c ****     ST7735_Select();
 1206              		.loc 1 288 5 is_stmt 1 view .LVU267
 1207 0032 FFF7FEFF 		bl	ST7735_Select
 1208              	.LVL118:
 289:Core/Lib/st7735/st7735.c ****     ST7735_SetAddressWindow(x, y, x+w-1, y+h-1);
 1209              		.loc 1 289 5 view .LVU268
 1210 0036 5FFA88F0 		uxtb	r0, r8
 1211 003a F1B2     		uxtb	r1, r6
 1212              		.loc 1 289 36 is_stmt 0 view .LVU269
 1213 003c 4219     		adds	r2, r0, r5
 1214 003e D2B2     		uxtb	r2, r2
 1215              		.loc 1 289 43 view .LVU270
 1216 0040 0B19     		adds	r3, r1, r4
ARM GAS  /tmp/ccwMV9eU.s 			page 29


 1217 0042 DBB2     		uxtb	r3, r3
 1218              		.loc 1 289 5 view .LVU271
 1219 0044 013B     		subs	r3, r3, #1
 1220 0046 013A     		subs	r2, r2, #1
 1221 0048 DBB2     		uxtb	r3, r3
 1222 004a D2B2     		uxtb	r2, r2
 1223 004c FFF7FEFF 		bl	ST7735_SetAddressWindow
 1224              	.LVL119:
 290:Core/Lib/st7735/st7735.c **** 
 291:Core/Lib/st7735/st7735.c ****     // Prepare whole line in a single buffer
 292:Core/Lib/st7735/st7735.c ****     uint8_t pixel[] = { color >> 8, color & 0xFF };
 1225              		.loc 1 292 5 is_stmt 1 view .LVU272
 1226              		.loc 1 292 13 is_stmt 0 view .LVU273
 1227 0050 3B0A     		lsrs	r3, r7, #8
 1228 0052 8DF80430 		strb	r3, [sp, #4]
 1229 0056 8DF80570 		strb	r7, [sp, #5]
 293:Core/Lib/st7735/st7735.c ****     uint8_t *line = malloc(w * sizeof(pixel));
 1230              		.loc 1 293 5 is_stmt 1 view .LVU274
 1231              		.loc 1 293 21 is_stmt 0 view .LVU275
 1232 005a 6800     		lsls	r0, r5, #1
 1233 005c FFF7FEFF 		bl	malloc
 1234              	.LVL120:
 1235 0060 0646     		mov	r6, r0
 1236              	.LVL121:
 294:Core/Lib/st7735/st7735.c ****     for(x = 0; x < w; ++x)
 1237              		.loc 1 294 5 is_stmt 1 view .LVU276
 1238              		.loc 1 294 11 is_stmt 0 view .LVU277
 1239 0062 0023     		movs	r3, #0
 1240              		.loc 1 294 5 view .LVU278
 1241 0064 05E0     		b	.L91
 1242              	.LVL122:
 1243              	.L92:
 295:Core/Lib/st7735/st7735.c ****     	memcpy(line + x * sizeof(pixel), pixel, sizeof(pixel));
 1244              		.loc 1 295 6 is_stmt 1 discriminator 3 view .LVU279
 1245 0066 BDF80420 		ldrh	r2, [sp, #4]
 1246 006a 26F81320 		strh	r2, [r6, r3, lsl #1]	@ unaligned
 294:Core/Lib/st7735/st7735.c ****     for(x = 0; x < w; ++x)
 1247              		.loc 1 294 23 discriminator 3 view .LVU280
 1248 006e 0133     		adds	r3, r3, #1
 1249              	.LVL123:
 294:Core/Lib/st7735/st7735.c ****     for(x = 0; x < w; ++x)
 1250              		.loc 1 294 23 is_stmt 0 discriminator 3 view .LVU281
 1251 0070 9BB2     		uxth	r3, r3
 1252              	.LVL124:
 1253              	.L91:
 294:Core/Lib/st7735/st7735.c ****     for(x = 0; x < w; ++x)
 1254              		.loc 1 294 16 is_stmt 1 discriminator 1 view .LVU282
 294:Core/Lib/st7735/st7735.c ****     for(x = 0; x < w; ++x)
 1255              		.loc 1 294 5 is_stmt 0 discriminator 1 view .LVU283
 1256 0072 AB42     		cmp	r3, r5
 1257 0074 F7D3     		bcc	.L92
 296:Core/Lib/st7735/st7735.c **** 
 297:Core/Lib/st7735/st7735.c ****     HAL_GPIO_WritePin(ST7735_DC_GPIO_Port, ST7735_DC_Pin, GPIO_PIN_SET);
 1258              		.loc 1 297 5 is_stmt 1 view .LVU284
 1259 0076 0122     		movs	r2, #1
 1260 0078 8021     		movs	r1, #128
 1261 007a 0B48     		ldr	r0, .L96
ARM GAS  /tmp/ccwMV9eU.s 			page 30


 1262              	.LVL125:
 1263              		.loc 1 297 5 is_stmt 0 view .LVU285
 1264 007c FFF7FEFF 		bl	HAL_GPIO_WritePin
 1265              	.LVL126:
 298:Core/Lib/st7735/st7735.c ****     for(y = h; y > 0; y--)
 1266              		.loc 1 298 5 is_stmt 1 view .LVU286
 1267              		.loc 1 298 5 is_stmt 0 view .LVU287
 1268 0080 08E0     		b	.L93
 1269              	.LVL127:
 1270              	.L94:
 299:Core/Lib/st7735/st7735.c ****         HAL_SPI_Transmit(&ST7735_SPI_PORT, line, w * sizeof(pixel), 10);
 1271              		.loc 1 299 9 is_stmt 1 discriminator 3 view .LVU288
 1272 0082 6A00     		lsls	r2, r5, #1
 1273 0084 92B2     		uxth	r2, r2
 1274 0086 0A23     		movs	r3, #10
 1275 0088 3146     		mov	r1, r6
 1276 008a 0848     		ldr	r0, .L96+4
 1277 008c FFF7FEFF 		bl	HAL_SPI_Transmit
 1278              	.LVL128:
 298:Core/Lib/st7735/st7735.c ****     for(y = h; y > 0; y--)
 1279              		.loc 1 298 23 discriminator 3 view .LVU289
 298:Core/Lib/st7735/st7735.c ****     for(y = h; y > 0; y--)
 1280              		.loc 1 298 24 is_stmt 0 discriminator 3 view .LVU290
 1281 0090 013C     		subs	r4, r4, #1
 1282              	.LVL129:
 298:Core/Lib/st7735/st7735.c ****     for(y = h; y > 0; y--)
 1283              		.loc 1 298 24 discriminator 3 view .LVU291
 1284 0092 A4B2     		uxth	r4, r4
 1285              	.LVL130:
 1286              	.L93:
 298:Core/Lib/st7735/st7735.c ****     for(y = h; y > 0; y--)
 1287              		.loc 1 298 16 is_stmt 1 discriminator 1 view .LVU292
 298:Core/Lib/st7735/st7735.c ****     for(y = h; y > 0; y--)
 1288              		.loc 1 298 5 is_stmt 0 discriminator 1 view .LVU293
 1289 0094 002C     		cmp	r4, #0
 1290 0096 F4D1     		bne	.L94
 300:Core/Lib/st7735/st7735.c **** 
 301:Core/Lib/st7735/st7735.c ****     free(line);
 1291              		.loc 1 301 5 is_stmt 1 view .LVU294
 1292 0098 3046     		mov	r0, r6
 1293 009a FFF7FEFF 		bl	free
 1294              	.LVL131:
 302:Core/Lib/st7735/st7735.c ****     ST7735_Unselect();
 1295              		.loc 1 302 5 view .LVU295
 1296 009e FFF7FEFF 		bl	ST7735_Unselect
 1297              	.LVL132:
 1298              	.L85:
 303:Core/Lib/st7735/st7735.c **** }
 1299              		.loc 1 303 1 is_stmt 0 view .LVU296
 1300 00a2 02B0     		add	sp, sp, #8
 1301              		.cfi_def_cfa_offset 24
 1302              		@ sp needed
 1303 00a4 BDE8F081 		pop	{r4, r5, r6, r7, r8, pc}
 1304              	.LVL133:
 1305              	.L97:
 1306              		.loc 1 303 1 view .LVU297
 1307              		.align	2
ARM GAS  /tmp/ccwMV9eU.s 			page 31


 1308              	.L96:
 1309 00a8 000C0140 		.word	1073810432
 1310 00ac 00000000 		.word	hspi2
 1311              		.cfi_endproc
 1312              	.LFE78:
 1314              		.section	.text.ST7735_FillScreen,"ax",%progbits
 1315              		.align	1
 1316              		.global	ST7735_FillScreen
 1317              		.syntax unified
 1318              		.thumb
 1319              		.thumb_func
 1320              		.fpu softvfp
 1322              	ST7735_FillScreen:
 1323              	.LVL134:
 1324              	.LFB79:
 304:Core/Lib/st7735/st7735.c **** 
 305:Core/Lib/st7735/st7735.c **** void ST7735_FillScreen(uint16_t color) {
 1325              		.loc 1 305 40 is_stmt 1 view -0
 1326              		.cfi_startproc
 1327              		@ args = 0, pretend = 0, frame = 0
 1328              		@ frame_needed = 0, uses_anonymous_args = 0
 1329              		.loc 1 305 40 is_stmt 0 view .LVU299
 1330 0000 00B5     		push	{lr}
 1331              		.cfi_def_cfa_offset 4
 1332              		.cfi_offset 14, -4
 1333 0002 83B0     		sub	sp, sp, #12
 1334              		.cfi_def_cfa_offset 16
 306:Core/Lib/st7735/st7735.c ****     ST7735_FillRectangle(0, 0, ST7735_WIDTH, ST7735_HEIGHT, color);
 1335              		.loc 1 306 5 is_stmt 1 view .LVU300
 1336 0004 0090     		str	r0, [sp]
 1337 0006 8023     		movs	r3, #128
 1338 0008 A022     		movs	r2, #160
 1339 000a 0021     		movs	r1, #0
 1340 000c 0846     		mov	r0, r1
 1341              	.LVL135:
 1342              		.loc 1 306 5 is_stmt 0 view .LVU301
 1343 000e FFF7FEFF 		bl	ST7735_FillRectangle
 1344              	.LVL136:
 307:Core/Lib/st7735/st7735.c **** }
 1345              		.loc 1 307 1 view .LVU302
 1346 0012 03B0     		add	sp, sp, #12
 1347              		.cfi_def_cfa_offset 4
 1348              		@ sp needed
 1349 0014 5DF804FB 		ldr	pc, [sp], #4
 1350              		.cfi_endproc
 1351              	.LFE79:
 1353              		.section	.text.ST7735_FillScreenFast,"ax",%progbits
 1354              		.align	1
 1355              		.global	ST7735_FillScreenFast
 1356              		.syntax unified
 1357              		.thumb
 1358              		.thumb_func
 1359              		.fpu softvfp
 1361              	ST7735_FillScreenFast:
 1362              	.LVL137:
 1363              	.LFB80:
 308:Core/Lib/st7735/st7735.c **** 
ARM GAS  /tmp/ccwMV9eU.s 			page 32


 309:Core/Lib/st7735/st7735.c **** void ST7735_FillScreenFast(uint16_t color) {
 1364              		.loc 1 309 44 is_stmt 1 view -0
 1365              		.cfi_startproc
 1366              		@ args = 0, pretend = 0, frame = 0
 1367              		@ frame_needed = 0, uses_anonymous_args = 0
 1368              		.loc 1 309 44 is_stmt 0 view .LVU304
 1369 0000 00B5     		push	{lr}
 1370              		.cfi_def_cfa_offset 4
 1371              		.cfi_offset 14, -4
 1372 0002 83B0     		sub	sp, sp, #12
 1373              		.cfi_def_cfa_offset 16
 310:Core/Lib/st7735/st7735.c ****     ST7735_FillRectangleFast(0, 0, ST7735_WIDTH, ST7735_HEIGHT, color);
 1374              		.loc 1 310 5 is_stmt 1 view .LVU305
 1375 0004 0090     		str	r0, [sp]
 1376 0006 8023     		movs	r3, #128
 1377 0008 A022     		movs	r2, #160
 1378 000a 0021     		movs	r1, #0
 1379 000c 0846     		mov	r0, r1
 1380              	.LVL138:
 1381              		.loc 1 310 5 is_stmt 0 view .LVU306
 1382 000e FFF7FEFF 		bl	ST7735_FillRectangleFast
 1383              	.LVL139:
 311:Core/Lib/st7735/st7735.c **** }
 1384              		.loc 1 311 1 view .LVU307
 1385 0012 03B0     		add	sp, sp, #12
 1386              		.cfi_def_cfa_offset 4
 1387              		@ sp needed
 1388 0014 5DF804FB 		ldr	pc, [sp], #4
 1389              		.cfi_endproc
 1390              	.LFE80:
 1392              		.section	.text.ST7735_DrawImage,"ax",%progbits
 1393              		.align	1
 1394              		.global	ST7735_DrawImage
 1395              		.syntax unified
 1396              		.thumb
 1397              		.thumb_func
 1398              		.fpu softvfp
 1400              	ST7735_DrawImage:
 1401              	.LVL140:
 1402              	.LFB81:
 312:Core/Lib/st7735/st7735.c **** 
 313:Core/Lib/st7735/st7735.c **** void ST7735_DrawImage(uint16_t x, uint16_t y, uint16_t w, uint16_t h, const uint16_t* data) {
 1403              		.loc 1 313 93 is_stmt 1 view -0
 1404              		.cfi_startproc
 1405              		@ args = 4, pretend = 0, frame = 0
 1406              		@ frame_needed = 0, uses_anonymous_args = 0
 314:Core/Lib/st7735/st7735.c ****     if((x >= ST7735_WIDTH) || (y >= ST7735_HEIGHT)) return;
 1407              		.loc 1 314 5 view .LVU309
 1408              		.loc 1 314 7 is_stmt 0 view .LVU310
 1409 0000 9F28     		cmp	r0, #159
 1410 0002 24D8     		bhi	.L105
 313:Core/Lib/st7735/st7735.c ****     if((x >= ST7735_WIDTH) || (y >= ST7735_HEIGHT)) return;
 1411              		.loc 1 313 93 discriminator 2 view .LVU311
 1412 0004 F8B5     		push	{r3, r4, r5, r6, r7, lr}
 1413              		.cfi_def_cfa_offset 24
 1414              		.cfi_offset 3, -24
 1415              		.cfi_offset 4, -20
ARM GAS  /tmp/ccwMV9eU.s 			page 33


 1416              		.cfi_offset 5, -16
 1417              		.cfi_offset 6, -12
 1418              		.cfi_offset 7, -8
 1419              		.cfi_offset 14, -4
 1420 0006 0446     		mov	r4, r0
 1421 0008 0D46     		mov	r5, r1
 1422 000a 1646     		mov	r6, r2
 1423 000c 1F46     		mov	r7, r3
 1424              		.loc 1 314 28 discriminator 2 view .LVU312
 1425 000e 7F29     		cmp	r1, #127
 1426 0010 05D8     		bhi	.L102
 315:Core/Lib/st7735/st7735.c ****     if((x + w - 1) >= ST7735_WIDTH) return;
 1427              		.loc 1 315 5 is_stmt 1 view .LVU313
 1428              		.loc 1 315 11 is_stmt 0 view .LVU314
 1429 0012 8318     		adds	r3, r0, r2
 1430              	.LVL141:
 1431              		.loc 1 315 7 view .LVU315
 1432 0014 A02B     		cmp	r3, #160
 1433 0016 02DC     		bgt	.L102
 316:Core/Lib/st7735/st7735.c ****     if((y + h - 1) >= ST7735_HEIGHT) return;
 1434              		.loc 1 316 5 is_stmt 1 view .LVU316
 1435              		.loc 1 316 11 is_stmt 0 view .LVU317
 1436 0018 CB19     		adds	r3, r1, r7
 1437              		.loc 1 316 7 view .LVU318
 1438 001a 802B     		cmp	r3, #128
 1439 001c 00DD     		ble	.L108
 1440              	.LVL142:
 1441              	.L102:
 317:Core/Lib/st7735/st7735.c **** 
 318:Core/Lib/st7735/st7735.c ****     ST7735_Select();
 319:Core/Lib/st7735/st7735.c ****     ST7735_SetAddressWindow(x, y, x+w-1, y+h-1);
 320:Core/Lib/st7735/st7735.c ****     ST7735_WriteData((uint8_t*)data, sizeof(uint16_t)*w*h);
 321:Core/Lib/st7735/st7735.c ****     ST7735_Unselect();
 322:Core/Lib/st7735/st7735.c **** }
 1442              		.loc 1 322 1 view .LVU319
 1443 001e F8BD     		pop	{r3, r4, r5, r6, r7, pc}
 1444              	.LVL143:
 1445              	.L108:
 318:Core/Lib/st7735/st7735.c ****     ST7735_SetAddressWindow(x, y, x+w-1, y+h-1);
 1446              		.loc 1 318 5 is_stmt 1 view .LVU320
 1447 0020 FFF7FEFF 		bl	ST7735_Select
 1448              	.LVL144:
 319:Core/Lib/st7735/st7735.c ****     ST7735_WriteData((uint8_t*)data, sizeof(uint16_t)*w*h);
 1449              		.loc 1 319 5 view .LVU321
 1450 0024 E0B2     		uxtb	r0, r4
 1451 0026 E9B2     		uxtb	r1, r5
 319:Core/Lib/st7735/st7735.c ****     ST7735_WriteData((uint8_t*)data, sizeof(uint16_t)*w*h);
 1452              		.loc 1 319 36 is_stmt 0 view .LVU322
 1453 0028 8219     		adds	r2, r0, r6
 1454 002a D2B2     		uxtb	r2, r2
 319:Core/Lib/st7735/st7735.c ****     ST7735_WriteData((uint8_t*)data, sizeof(uint16_t)*w*h);
 1455              		.loc 1 319 43 view .LVU323
 1456 002c CB19     		adds	r3, r1, r7
 1457 002e DBB2     		uxtb	r3, r3
 319:Core/Lib/st7735/st7735.c ****     ST7735_WriteData((uint8_t*)data, sizeof(uint16_t)*w*h);
 1458              		.loc 1 319 5 view .LVU324
 1459 0030 013B     		subs	r3, r3, #1
ARM GAS  /tmp/ccwMV9eU.s 			page 34


 1460 0032 013A     		subs	r2, r2, #1
 1461 0034 DBB2     		uxtb	r3, r3
 1462 0036 D2B2     		uxtb	r2, r2
 1463 0038 FFF7FEFF 		bl	ST7735_SetAddressWindow
 1464              	.LVL145:
 320:Core/Lib/st7735/st7735.c ****     ST7735_Unselect();
 1465              		.loc 1 320 5 is_stmt 1 view .LVU325
 320:Core/Lib/st7735/st7735.c ****     ST7735_Unselect();
 1466              		.loc 1 320 56 is_stmt 0 view .LVU326
 1467 003c 07FB06F1 		mul	r1, r7, r6
 320:Core/Lib/st7735/st7735.c ****     ST7735_Unselect();
 1468              		.loc 1 320 5 view .LVU327
 1469 0040 4900     		lsls	r1, r1, #1
 1470 0042 0698     		ldr	r0, [sp, #24]
 1471 0044 FFF7FEFF 		bl	ST7735_WriteData
 1472              	.LVL146:
 321:Core/Lib/st7735/st7735.c **** }
 1473              		.loc 1 321 5 is_stmt 1 view .LVU328
 1474 0048 FFF7FEFF 		bl	ST7735_Unselect
 1475              	.LVL147:
 1476 004c E7E7     		b	.L102
 1477              	.LVL148:
 1478              	.L105:
 1479              		.cfi_def_cfa_offset 0
 1480              		.cfi_restore 3
 1481              		.cfi_restore 4
 1482              		.cfi_restore 5
 1483              		.cfi_restore 6
 1484              		.cfi_restore 7
 1485              		.cfi_restore 14
 321:Core/Lib/st7735/st7735.c **** }
 1486              		.loc 1 321 5 is_stmt 0 view .LVU329
 1487 004e 7047     		bx	lr
 1488              		.cfi_endproc
 1489              	.LFE81:
 1491              		.section	.text.ST7735_InvertColors,"ax",%progbits
 1492              		.align	1
 1493              		.global	ST7735_InvertColors
 1494              		.syntax unified
 1495              		.thumb
 1496              		.thumb_func
 1497              		.fpu softvfp
 1499              	ST7735_InvertColors:
 1500              	.LVL149:
 1501              	.LFB82:
 323:Core/Lib/st7735/st7735.c **** 
 324:Core/Lib/st7735/st7735.c **** void ST7735_InvertColors(bool invert) {
 1502              		.loc 1 324 39 is_stmt 1 view -0
 1503              		.cfi_startproc
 1504              		@ args = 0, pretend = 0, frame = 0
 1505              		@ frame_needed = 0, uses_anonymous_args = 0
 1506              		.loc 1 324 39 is_stmt 0 view .LVU331
 1507 0000 10B5     		push	{r4, lr}
 1508              		.cfi_def_cfa_offset 8
 1509              		.cfi_offset 4, -8
 1510              		.cfi_offset 14, -4
 1511 0002 0446     		mov	r4, r0
ARM GAS  /tmp/ccwMV9eU.s 			page 35


 325:Core/Lib/st7735/st7735.c ****     ST7735_Select();
 1512              		.loc 1 325 5 is_stmt 1 view .LVU332
 1513 0004 FFF7FEFF 		bl	ST7735_Select
 1514              	.LVL150:
 326:Core/Lib/st7735/st7735.c ****     ST7735_WriteCommand(invert ? ST7735_INVON : ST7735_INVOFF);
 1515              		.loc 1 326 5 view .LVU333
 1516 0008 2CB1     		cbz	r4, .L111
 1517 000a 2120     		movs	r0, #33
 1518              	.L110:
 1519              		.loc 1 326 5 is_stmt 0 discriminator 4 view .LVU334
 1520 000c FFF7FEFF 		bl	ST7735_WriteCommand
 1521              	.LVL151:
 327:Core/Lib/st7735/st7735.c ****     ST7735_Unselect();
 1522              		.loc 1 327 5 is_stmt 1 discriminator 4 view .LVU335
 1523 0010 FFF7FEFF 		bl	ST7735_Unselect
 1524              	.LVL152:
 328:Core/Lib/st7735/st7735.c **** }
 1525              		.loc 1 328 1 is_stmt 0 discriminator 4 view .LVU336
 1526 0014 10BD     		pop	{r4, pc}
 1527              	.L111:
 326:Core/Lib/st7735/st7735.c ****     ST7735_WriteCommand(invert ? ST7735_INVON : ST7735_INVOFF);
 1528              		.loc 1 326 5 view .LVU337
 1529 0016 2020     		movs	r0, #32
 1530 0018 F8E7     		b	.L110
 1531              		.cfi_endproc
 1532              	.LFE82:
 1534              		.section	.text.ST7735_SetGamma,"ax",%progbits
 1535              		.align	1
 1536              		.global	ST7735_SetGamma
 1537              		.syntax unified
 1538              		.thumb
 1539              		.thumb_func
 1540              		.fpu softvfp
 1542              	ST7735_SetGamma:
 1543              	.LVL153:
 1544              	.LFB83:
 329:Core/Lib/st7735/st7735.c **** 
 330:Core/Lib/st7735/st7735.c **** void ST7735_SetGamma(GammaDef gamma)
 331:Core/Lib/st7735/st7735.c **** {
 1545              		.loc 1 331 1 is_stmt 1 view -0
 1546              		.cfi_startproc
 1547              		@ args = 0, pretend = 0, frame = 8
 1548              		@ frame_needed = 0, uses_anonymous_args = 0
 1549              		.loc 1 331 1 is_stmt 0 view .LVU339
 1550 0000 00B5     		push	{lr}
 1551              		.cfi_def_cfa_offset 4
 1552              		.cfi_offset 14, -4
 1553 0002 83B0     		sub	sp, sp, #12
 1554              		.cfi_def_cfa_offset 16
 1555 0004 8DF80700 		strb	r0, [sp, #7]
 332:Core/Lib/st7735/st7735.c **** 	ST7735_Select();
 1556              		.loc 1 332 2 is_stmt 1 view .LVU340
 1557 0008 FFF7FEFF 		bl	ST7735_Select
 1558              	.LVL154:
 333:Core/Lib/st7735/st7735.c **** 	ST7735_WriteCommand(ST7735_GAMSET);
 1559              		.loc 1 333 2 view .LVU341
 1560 000c 2620     		movs	r0, #38
ARM GAS  /tmp/ccwMV9eU.s 			page 36


 1561 000e FFF7FEFF 		bl	ST7735_WriteCommand
 1562              	.LVL155:
 334:Core/Lib/st7735/st7735.c **** 	ST7735_WriteData(&gamma, sizeof(gamma));
 1563              		.loc 1 334 2 view .LVU342
 1564 0012 0121     		movs	r1, #1
 1565 0014 0DF10700 		add	r0, sp, #7
 1566 0018 FFF7FEFF 		bl	ST7735_WriteData
 1567              	.LVL156:
 335:Core/Lib/st7735/st7735.c **** 	ST7735_Unselect();
 1568              		.loc 1 335 2 view .LVU343
 1569 001c FFF7FEFF 		bl	ST7735_Unselect
 1570              	.LVL157:
 336:Core/Lib/st7735/st7735.c **** }
 1571              		.loc 1 336 1 is_stmt 0 view .LVU344
 1572 0020 03B0     		add	sp, sp, #12
 1573              		.cfi_def_cfa_offset 4
 1574              		@ sp needed
 1575 0022 5DF804FB 		ldr	pc, [sp], #4
 1576              		.cfi_endproc
 1577              	.LFE83:
 1579              		.section	.rodata.init_cmds1,"a"
 1580              		.align	2
 1581              		.set	.LANCHOR0,. + 0
 1584              	init_cmds1:
 1585 0000 0F018096 		.ascii	"\017\001\200\226\021\200\377\261\003\001,-\262\003\001"
 1585      1180FFB1 
 1585      03012C2D 
 1585      B20301
 1586 000f 2C2DB306 		.ascii	",-\263\006\001,-\001,-\264\001\007\300\003\242\002\204"
 1586      012C2D01 
 1586      2C2DB401 
 1586      07C003A2 
 1586      0284
 1587 0021 C101C5C2 		.ascii	"\301\001\305\302\002\012\000\303\002\212*\304\002\212"
 1587      020A00C3 
 1587      028A2AC4 
 1587      028A
 1588 002f EEC5010E 		.ascii	"\356\305\001\016 \0006\001\240:\001\005"
 1588      20003601 
 1588      A03A0105 
 1589              		.section	.rodata.init_cmds2,"a"
 1590              		.align	2
 1591              		.set	.LANCHOR1,. + 0
 1594              	init_cmds2:
 1595 0000 022A0400 		.ascii	"\002*\004\000\000\000\177+\004\000\000\000\177"
 1595      00007F2B 
 1595      04000000 
 1595      7F
 1596              		.section	.rodata.init_cmds3,"a"
 1597              		.align	2
 1598              		.set	.LANCHOR2,. + 0
 1601              	init_cmds3:
 1602 0000 04E01002 		.ascii	"\004\340\020\002\034\007\02272)-)%+9\000\001\003\020"
 1602      1C071237 
 1602      32292D29 
 1602      252B3900 
 1602      010310
ARM GAS  /tmp/ccwMV9eU.s 			page 37


 1603 0013 E110031D 		.ascii	"\341\020\003\035\007\006.,)-..7?\000\000\002\020\023"
 1603      07062E2C 
 1603      292D2E2E 
 1603      373F0000 
 1603      021013
 1604 0026 800A2980 		.ascii	"\200\012)\200d"
 1604      64
 1605              		.text
 1606              	.Letext0:
 1607              		.file 2 "/usr/lib/gcc/arm-none-eabi/10.3.1/include/stdint.h"
 1608              		.file 3 "Drivers/CMSIS/Device/ST/STM32F1xx/Include/stm32f103xb.h"
 1609              		.file 4 "/usr/lib/gcc/arm-none-eabi/10.3.1/include/stddef.h"
 1610              		.file 5 "Drivers/STM32F1xx_HAL_Driver/Inc/stm32f1xx_hal_def.h"
 1611              		.file 6 "Drivers/STM32F1xx_HAL_Driver/Inc/stm32f1xx_hal_gpio.h"
 1612              		.file 7 "Drivers/STM32F1xx_HAL_Driver/Inc/stm32f1xx_hal_dma.h"
 1613              		.file 8 "Drivers/STM32F1xx_HAL_Driver/Inc/stm32f1xx_hal_spi.h"
 1614              		.file 9 "Core/Lib/st7735/fonts.h"
 1615              		.file 10 "Core/Lib/st7735/st7735.h"
 1616              		.file 11 "Core/Inc/spi.h"
 1617              		.file 12 "/usr/include/newlib/malloc.h"
 1618              		.file 13 "/usr/include/newlib/string.h"
 1619              		.file 14 "Drivers/STM32F1xx_HAL_Driver/Inc/stm32f1xx_hal.h"
ARM GAS  /tmp/ccwMV9eU.s 			page 38

